Certificate:
    Data:
        Version: 3 (0x2)
        Serial Number: 4097 (0x1001)
        Signature Algorithm: sha256WithRSAEncryption
        Issuer: C=IN, ST=Bihar, O=DemoServices, OU=Intermediate, CN=DemoIntermediateCA
        Validity
            Not Before: Mar  5 06:49:28 2026 GMT
            Not After : Mar  5 06:49:28 2027 GMT
        Subject: C=IN, ST=karnatak, O=rise, OU=cdac, CN=1001/emailAddress=1001.@gmail.com
        Subject Public Key Info:
            Public Key Algorithm: rsaEncryption
                Public-Key: (2048 bit)
                Modulus:
                    00:9b:5d:88:ff:7e:6c:34:69:70:73:09:8f:e9:d1:
                    0c:aa:a6:79:62:61:52:82:29:7b:76:9c:2a:07:23:
                    0b:3b:70:83:fb:09:ab:65:99:0a:0a:3a:eb:e2:85:
                    16:51:32:07:76:2e:82:8a:0f:f9:fd:60:44:73:86:
                    5e:81:3c:c6:8b:47:fc:e8:a6:fb:5f:bd:a5:69:e1:
                    b1:d5:66:5d:57:c3:91:ca:f3:f5:fb:39:5c:03:00:
                    3b:01:57:6e:69:91:af:e8:9e:1e:43:c5:90:0c:3b:
                    b3:36:13:13:80:3f:b1:0e:16:7b:e5:e4:9a:f3:e6:
                    6b:22:4d:2e:39:b4:a3:fc:0e:f5:75:2d:0e:26:40:
                    90:3b:3f:46:2f:d5:b1:2f:25:2d:ae:8a:7c:06:af:
                    94:c9:6a:7d:cb:04:0f:d6:9b:38:c5:4c:b4:f8:8e:
                    c5:ec:73:08:94:25:78:7b:30:7f:14:31:99:00:92:
                    a1:b6:ac:88:18:f8:1c:38:44:3e:5a:a9:0b:2e:51:
                    a6:da:3e:0d:0d:73:b9:f9:03:d1:27:20:21:2b:9e:
                    dd:db:5d:80:1d:b1:31:e8:d2:69:3b:71:57:27:62:
                    1a:23:aa:2f:d9:cb:9c:29:a8:69:ca:d5:26:83:94:
                    d0:36:6d:16:36:01:8f:47:05:ad:84:70:09:bc:58:
                    61:b9
                Exponent: 65537 (0x10001)
        X509v3 extensions:
            X509v3 Basic Constraints: 
                CA:FALSE
            X509v3 Subject Key Identifier: 
                91:1A:ED:34:D1:A4:29:DF:0A:64:EB:BD:57:0D:57:83:49:BE:8E:AB
            X509v3 Authority Key Identifier: 
                3C:E7:36:3F:17:26:50:E7:59:68:87:AC:0F:0E:5F:76:C6:9E:44:26
            X509v3 Key Usage: 
                Digital Signature, Key Encipherment
            X509v3 Extended Key Usage: 
                TLS Web Client Authentication
            X509v3 CRL Distribution Points: 
                Full Name:
                  URI:http://localhost:3000/static/intermediate.crl

            1.2.3.4.5.6.7.8.1: 
                ...{"Zero Trust Gateway":"Policy Admin","PKI Management":"Cert Operator","HSM Operation":"NA","IAM":"NA","Security Analytics":"NA","Crypto Vault":"NA"}
    Signature Algorithm: sha256WithRSAEncryption
    Signature Value:
        85:bc:ed:e7:ca:0a:d3:58:54:8a:48:43:80:7d:c2:1e:68:52:
        f3:3a:c0:c3:5a:41:15:d9:ea:39:bc:38:3c:6f:fb:50:24:4c:
        9f:e0:18:8b:06:19:dd:85:d6:a2:70:c3:bd:f6:28:4d:1b:a1:
        d3:9d:d0:41:89:29:3c:5f:50:e9:82:77:b3:dd:c5:f0:76:cf:
        b5:b4:e8:a2:a3:5f:97:29:dd:49:a9:ae:c5:c9:07:4d:93:eb:
        1b:bc:47:05:3f:68:c7:dc:67:06:23:09:03:f6:0e:57:19:a9:
        7d:f8:8e:34:8f:12:be:5b:41:30:8d:79:e1:95:d9:43:34:03:
        b3:43:c6:12:53:88:4c:89:d6:d9:86:cd:8b:07:42:bf:98:75:
        09:c5:77:fa:ee:4c:c7:1b:25:9c:53:da:40:bc:34:9f:51:b9:
        36:ea:6a:cd:e5:51:28:f1:a4:62:5d:bf:08:a9:aa:70:30:39:
        a2:03:75:39:ea:06:48:b4:de:7f:da:7a:5a:a9:83:47:52:9b:
        a8:bc:3d:5a:fd:2a:6b:6c:be:b1:44:cc:bd:38:25:63:f0:54:
        fc:e5:eb:d0:48:9d:cb:74:60:94:3e:5d:68:28:31:97:0a:0e:
        eb:0b:32:4d:67:f1:da:1e:53:5f:63:23:2d:ba:fc:7d:5a:f1:
        1e:09:38:06:4b:e1:e2:86:dd:c3:eb:86:5e:bc:6a:9c:7c:d7:
        f9:9d:f2:48:c9:c2:be:ee:d3:79:24:2b:a0:65:79:41:6b:c0:
        62:d5:39:47:03:f2:02:23:d4:71:64:18:65:e0:4c:2f:66:d8:
        86:3c:44:01:7f:00:a4:79:1e:68:38:28:4e:3e:6b:86:e4:06:
        15:aa:b3:bf:0d:1c:97:ed:0f:6c:3f:45:e4:e4:b4:05:27:98:
        f8:5f:62:ae:32:d1:f7:51:7e:80:1f:6c:f4:32:2a:fc:9b:a5:
        5f:76:2e:72:57:26:c8:d5:44:c5:71:9c:5f:ce:8d:bb:95:4e:
        49:ae:a4:15:ba:2e:dd:57:a4:03:5f:65:32:da:48:f2:77:a0:
        d4:17:dd:c4:83:a3:24:23:02:89:9b:a9:28:f9:fd:0b:57:82:
        c8:c3:cc:ff:71:08:74:d7:45:05:fd:29:bf:79:bb:35:ee:60:
        57:c6:f8:ee:68:89:7e:c1:c3:3f:54:e5:63:af:35:3f:42:b7:
        92:f3:8b:d4:a1:66:58:2f:ee:c4:38:13:b3:43:4e:b5:b4:7a:
        c9:0c:9e:6b:10:58:30:3b:8d:f5:e1:64:52:fb:53:40:29:dc:
        8f:97:87:52:c2:87:d8:b1:d4:96:3b:03:bf:2b:ba:06:32:b0:
        8f:28:b3:31:d5:2a:bd:b6
-----BEGIN CERTIFICATE-----
MIIFqzCCA5OgAwIBAgICEAEwDQYJKoZIhvcNAQELBQAwaDELMAkGA1UEBhMCSU4x
DjAMBgNVBAgMBUJpaGFyMRUwEwYDVQQKDAxEZW1vU2VydmljZXMxFTATBgNVBAsM
DEludGVybWVkaWF0ZTEbMBkGA1UEAwwSRGVtb0ludGVybWVkaWF0ZUNBMB4XDTI2
MDMwNTA2NDkyOFoXDTI3MDMwNTA2NDkyOFowbTELMAkGA1UEBhMCSU4xETAPBgNV
BAgMCGthcm5hdGFrMQ0wCwYDVQQKDARyaXNlMQ0wCwYDVQQLDARjZGFjMQ0wCwYD
VQQDDAQxMDAxMR4wHAYJKoZIhvcNAQkBFg8xMDAxLkBnbWFpbC5jb20wggEiMA0G
CSqGSIb3DQEBAQUAA4IBDwAwggEKAoIBAQCbXYj/fmw0aXBzCY/p0QyqpnliYVKC
KXt2nCoHIws7cIP7CatlmQoKOuvihRZRMgd2LoKKD/n9YERzhl6BPMaLR/zopvtf
vaVp4bHVZl1Xw5HK8/X7OVwDADsBV25pka/onh5DxZAMO7M2ExOAP7EOFnvl5Jrz
5msiTS45tKP8DvV1LQ4mQJA7P0Yv1bEvJS2uinwGr5TJan3LBA/WmzjFTLT4jsXs
cwiUJXh7MH8UMZkAkqG2rIgY+Bw4RD5aqQsuUabaPg0Nc7n5A9EnICErnt3bXYAd
sTHo0mk7cVcnYhojqi/Zy5wpqGnK1SaDlNA2bRY2AY9HBa2EcAm8WGG5AgMBAAGj
ggFYMIIBVDAJBgNVHRMEAjAAMB0GA1UdDgQWBBSRGu000aQp3wpk671XDVeDSb6O
qzAfBgNVHSMEGDAWgBQ85zY/FyZQ51loh6wPDl92xp5EJjALBgNVHQ8EBAMCBaAw
EwYDVR0lBAwwCgYIKwYBBQUHAwIwPgYDVR0fBDcwNTAzoDGgL4YtaHR0cDovL2xv
Y2FsaG9zdDozMDAwL3N0YXRpYy9pbnRlcm1lZGlhdGUuY3JsMIGkBggqAwQFBgcI
AQSBlwyBlHsiWmVybyBUcnVzdCBHYXRld2F5IjoiUG9saWN5IEFkbWluIiwiUEtJ
IE1hbmFnZW1lbnQiOiJDZXJ0IE9wZXJhdG9yIiwiSFNNIE9wZXJhdGlvbiI6Ik5B
IiwiSUFNIjoiTkEiLCJTZWN1cml0eSBBbmFseXRpY3MiOiJOQSIsIkNyeXB0byBW
YXVsdCI6Ik5BIn0wDQYJKoZIhvcNAQELBQADggIBAIW87efKCtNYVIpIQ4B9wh5o
UvM6wMNaQRXZ6jm8ODxv+1AkTJ/gGIsGGd2F1qJww732KE0bodOd0EGJKTxfUOmC
d7PdxfB2z7W06KKjX5cp3UmprsXJB02T6xu8RwU/aMfcZwYjCQP2DlcZqX34jjSP
Er5bQTCNeeGV2UM0A7NDxhJTiEyJ1tmGzYsHQr+YdQnFd/ruTMcbJZxT2kC8NJ9R
uTbqas3lUSjxpGJdvwipqnAwOaIDdTnqBki03n/aelqpg0dSm6i8PVr9KmtsvrFE
zL04JWPwVPzl69BInct0YJQ+XWgoMZcKDusLMk1n8doeU19jIy26/H1a8R4JOAZL
4eKG3cPrhl68apx81/md8kjJwr7u03kkK6BleUFrwGLVOUcD8gIj1HFkGGXgTC9m
2IY8RAF/AKR5Hmg4KE4+a4bkBhWqs78NHJftD2w/ReTktAUnmPhfYq4y0fdRfoAf
bPQyKvybpV92LnJXJsjVRMVxnF/OjbuVTkmupBW6Lt1XpANfZTLaSPJ3oNQX3cSD
oyQjAombqSj5/QtXgsjDzP9xCHTXRQX9Kb95uzXuYFfG+O5oiX7Bwz9U5WOvNT9C
t5Lzi9ShZlgv7sQ4E7NDTrW0eskMnmsQWDA7jfXhZFL7U0Ap3I+Xh1LCh9ix1JY7
A78rugYysI8oszHVKr22
-----END CERTIFICATE-----
