Certificate:
    Data:
        Version: 3 (0x2)
        Serial Number: 4096 (0x1000)
        Signature Algorithm: sha256WithRSAEncryption
        Issuer: C=IN, ST=Bihar, O=DemoServices, OU=Intermediate, CN=DemoIntermediateCA
        Validity
            Not Before: Mar  3 06:03:41 2026 GMT
            Not After : Mar  3 06:03:41 2027 GMT
        Subject: C=IN, ST=Karnataka, O=Cdac, OU=Rise, CN=admin/emailAddress=admin@gmail.com
        Subject Public Key Info:
            Public Key Algorithm: rsaEncryption
                Public-Key: (2048 bit)
                Modulus:
                    00:95:fb:ee:53:3f:34:cb:36:1c:24:84:ae:b8:2e:
                    30:4b:58:67:87:a7:02:e8:14:20:84:e6:84:35:4a:
                    9d:c5:d8:47:68:b5:55:14:7e:41:6b:17:aa:a1:c7:
                    66:7d:d2:51:c9:ac:1a:70:64:81:73:c7:ae:a9:67:
                    79:de:aa:12:7c:53:91:60:4c:45:3c:8b:fc:7a:0c:
                    b6:a2:5c:cb:ae:9b:fd:a5:6c:70:87:07:8e:48:7c:
                    f7:60:fd:44:d1:93:91:e9:a8:53:b9:9a:cd:7c:60:
                    d8:fb:35:f8:99:1d:19:3e:ec:08:80:38:fe:e3:e9:
                    8b:d7:61:f0:ba:5d:5d:00:df:17:32:da:e1:ff:2a:
                    8e:17:d4:3b:29:bb:99:8f:79:46:fb:fc:59:13:3d:
                    b5:ce:a3:9a:ea:eb:0e:9e:c4:42:cb:de:a2:fc:e7:
                    89:48:11:68:55:e8:c4:fa:68:32:39:f9:9a:87:b4:
                    c2:54:f6:a1:68:6d:e4:8b:48:df:0b:21:ce:97:69:
                    e2:c2:52:1e:eb:00:45:d6:de:a3:3a:40:c5:fd:78:
                    32:51:62:2d:27:4d:d2:f1:c6:69:7f:60:f8:69:10:
                    29:0c:29:ab:00:c2:8c:f0:80:c5:55:ae:58:cf:1e:
                    13:23:ff:e9:af:e6:4b:ca:34:95:02:ec:53:9e:a4:
                    69:7d
                Exponent: 65537 (0x10001)
        X509v3 extensions:
            X509v3 Basic Constraints: 
                CA:FALSE
            X509v3 Subject Key Identifier: 
                4B:B9:63:1E:A4:4D:9C:6F:21:B1:65:F1:13:E0:D5:7D:D7:33:13:D5
            X509v3 Authority Key Identifier: 
                3C:E7:36:3F:17:26:50:E7:59:68:87:AC:0F:0E:5F:76:C6:9E:44:26
            X509v3 Key Usage: 
                Digital Signature, Key Encipherment
            X509v3 Extended Key Usage: 
                TLS Web Client Authentication
            X509v3 CRL Distribution Points: 
                Full Name:
                  URI:http://localhost:3000/static/intermediate.crl

            1.2.3.4.5.6.7.8.1: 
                ..["admin"]
    Signature Algorithm: sha256WithRSAEncryption
    Signature Value:
        5c:3f:d1:39:42:d3:9f:48:e9:30:a8:26:f1:bd:e1:f4:91:7a:
        60:7b:da:4a:e6:56:51:b4:76:e7:b9:a4:28:71:08:09:10:dd:
        b2:f3:e7:13:7c:9e:9c:26:7b:1b:d7:13:04:2d:15:1e:ec:b1:
        84:db:3a:6e:3a:6c:50:3f:9c:c2:c7:ec:96:71:36:2a:e9:2b:
        e5:40:26:b2:16:d1:15:2a:0b:52:c8:fb:5e:4a:26:9e:7e:01:
        5b:d2:18:a7:08:01:82:01:25:df:23:12:78:43:b4:09:eb:d9:
        4d:ac:86:3a:34:78:a1:e0:f6:d8:32:c9:36:fd:70:9a:2e:aa:
        cd:20:52:64:b8:14:43:53:14:73:e0:60:11:f7:6a:28:21:e3:
        f2:38:88:a0:cf:fe:8e:d2:b1:9f:f4:e2:21:d0:aa:e8:ad:40:
        87:02:b3:ae:29:1e:05:03:6d:c5:9d:8f:23:8c:78:41:e8:ff:
        a4:bd:08:d1:52:0c:e7:f2:4d:10:35:06:bf:f3:61:5b:2d:cd:
        e5:b2:59:b5:9a:12:99:d6:66:2d:3b:ab:46:4a:ad:25:40:3a:
        b6:79:04:1d:ea:e1:7a:a4:be:0c:44:cf:41:58:c4:08:52:4e:
        6e:5b:88:4a:79:9b:c9:14:26:91:57:4b:c6:07:0b:23:6d:c6:
        84:7f:d1:e4:f6:12:e5:25:26:04:78:47:c2:5f:9e:3a:45:19:
        b6:31:59:98:ee:ae:ee:4b:b6:98:92:50:85:5a:1f:e5:0d:5e:
        05:b0:18:d0:b0:54:81:3e:92:e0:8d:39:df:84:a2:e0:c8:01:
        cd:2a:92:38:3c:dd:b4:b0:b6:67:6f:12:8b:3e:d2:56:bc:a6:
        29:f5:89:a1:75:1c:90:16:d9:2a:48:f6:00:fb:7f:76:ae:93:
        25:8c:03:9e:57:61:bb:3e:bb:6d:83:57:f1:d9:96:62:08:db:
        f6:66:e7:db:f5:4a:a1:8a:19:7d:68:87:d6:44:fd:cc:06:4c:
        86:9f:86:22:5f:7a:b0:2e:20:21:c2:03:39:14:0b:d0:74:8b:
        05:dd:5e:c8:ca:3d:71:f7:72:bc:e5:45:a6:4a:bf:0f:c8:af:
        1e:44:27:a0:1c:b2:05:72:19:09:30:bf:b8:ba:0b:82:f9:43:
        a0:1a:a1:de:2a:f1:56:fa:a4:1c:ae:b5:68:fc:86:53:01:11:
        7d:99:58:5a:61:18:7c:66:82:57:ef:bf:c4:ed:85:5b:20:b1:
        33:56:31:be:21:4c:af:64:f4:d9:d2:62:e2:7b:5b:f0:76:ea:
        ef:75:0d:a7:d7:56:db:93:7d:d7:d8:7c:46:15:7e:99:c4:07:
        0c:9c:6b:e3:ec:da:30:32
-----BEGIN CERTIFICATE-----
MIIFHTCCAwWgAwIBAgICEAAwDQYJKoZIhvcNAQELBQAwaDELMAkGA1UEBhMCSU4x
DjAMBgNVBAgMBUJpaGFyMRUwEwYDVQQKDAxEZW1vU2VydmljZXMxFTATBgNVBAsM
DEludGVybWVkaWF0ZTEbMBkGA1UEAwwSRGVtb0ludGVybWVkaWF0ZUNBMB4XDTI2
MDMwMzA2MDM0MVoXDTI3MDMwMzA2MDM0MVowbzELMAkGA1UEBhMCSU4xEjAQBgNV
BAgMCUthcm5hdGFrYTENMAsGA1UECgwEQ2RhYzENMAsGA1UECwwEUmlzZTEOMAwG
A1UEAwwFYWRtaW4xHjAcBgkqhkiG9w0BCQEWD2FkbWluQGdtYWlsLmNvbTCCASIw
DQYJKoZIhvcNAQEBBQADggEPADCCAQoCggEBAJX77lM/NMs2HCSErrguMEtYZ4en
AugUIITmhDVKncXYR2i1VRR+QWsXqqHHZn3SUcmsGnBkgXPHrqlned6qEnxTkWBM
RTyL/HoMtqJcy66b/aVscIcHjkh892D9RNGTkemoU7mazXxg2Ps1+JkdGT7sCIA4
/uPpi9dh8LpdXQDfFzLa4f8qjhfUOym7mY95Rvv8WRM9tc6jmurrDp7EQsveovzn
iUgRaFXoxPpoMjn5moe0wlT2oWht5ItI3wshzpdp4sJSHusARdbeozpAxf14MlFi
LSdN0vHGaX9g+GkQKQwpqwDCjPCAxVWuWM8eEyP/6a/mS8o0lQLsU56kaX0CAwEA
AaOByTCBxjAJBgNVHRMEAjAAMB0GA1UdDgQWBBRLuWMepE2cbyGxZfET4NV91zMT
1TAfBgNVHSMEGDAWgBQ85zY/FyZQ51loh6wPDl92xp5EJjALBgNVHQ8EBAMCBaAw
EwYDVR0lBAwwCgYIKwYBBQUHAwIwPgYDVR0fBDcwNTAzoDGgL4YtaHR0cDovL2xv
Y2FsaG9zdDozMDAwL3N0YXRpYy9pbnRlcm1lZGlhdGUuY3JsMBcGCCoDBAUGBwgB
BAsMCVsiYWRtaW4iXTANBgkqhkiG9w0BAQsFAAOCAgEAXD/ROULTn0jpMKgm8b3h
9JF6YHvaSuZWUbR257mkKHEICRDdsvPnE3yenCZ7G9cTBC0VHuyxhNs6bjpsUD+c
wsfslnE2Kukr5UAmshbRFSoLUsj7Xkomnn4BW9IYpwgBggEl3yMSeEO0CevZTayG
OjR4oeD22DLJNv1wmi6qzSBSZLgUQ1MUc+BgEfdqKCHj8jiIoM/+jtKxn/TiIdCq
6K1AhwKzrikeBQNtxZ2PI4x4Qej/pL0I0VIM5/JNEDUGv/NhWy3N5bJZtZoSmdZm
LTurRkqtJUA6tnkEHerheqS+DETPQVjECFJObluISnmbyRQmkVdLxgcLI23GhH/R
5PYS5SUmBHhHwl+eOkUZtjFZmO6u7ku2mJJQhVof5Q1eBbAY0LBUgT6S4I0534Si
4MgBzSqSODzdtLC2Z28Siz7SVrymKfWJoXUckBbZKkj2APt/dq6TJYwDnldhuz67
bYNX8dmWYgjb9mbn2/VKoYoZfWiH1kT9zAZMhp+GIl96sC4gIcIDORQL0HSLBd1e
yMo9cfdyvOVFpkq/D8ivHkQnoByyBXIZCTC/uLoLgvlDoBqh3irxVvqkHK61aPyG
UwERfZlYWmEYfGaCV++/xO2FWyCxM1YxviFMr2T02dJi4ntb8Hbq73UNp9dW25N9
19h8RhV+mcQHDJxr4+zaMDI=
-----END CERTIFICATE-----
