Certificate:
    Data:
        Version: 3 (0x2)
        Serial Number: 4101 (0x1005)
        Signature Algorithm: sha256WithRSAEncryption
        Issuer: C=IN, ST=Bihar, O=DemoServices, OU=Intermediate, CN=DemoIntermediateCA
        Validity
            Not Before: Feb 24 10:12:37 2026 GMT
            Not After : Feb 24 10:12:37 2027 GMT
        Subject: C=IN, ST=Jharkhand, O=None, OU=None, CN=chotu/emailAddress=chotu@gmail.com
        Subject Public Key Info:
            Public Key Algorithm: rsaEncryption
                Public-Key: (2048 bit)
                Modulus:
                    00:88:5e:77:0e:b7:ba:6b:79:00:a3:2a:c0:22:2c:
                    4f:64:cf:aa:19:4c:4a:05:31:00:b5:0c:da:57:66:
                    c2:78:05:88:b3:99:13:e2:f1:29:10:cb:20:ae:c5:
                    ec:95:c0:78:ae:62:bb:65:ed:24:00:ba:3f:7d:de:
                    5f:43:6f:27:55:0e:47:f2:ad:bd:1d:8d:07:7d:6c:
                    9b:3a:ab:19:35:52:51:51:21:10:e6:e3:fe:8d:e1:
                    4a:cd:23:b1:47:21:9e:5e:1f:ed:8e:bd:19:4d:7b:
                    29:fd:76:24:5e:26:2c:7e:80:0d:67:f6:be:a9:8c:
                    85:3b:da:24:23:67:54:70:42:75:69:e7:97:83:31:
                    4d:f7:69:94:46:93:b5:aa:08:83:81:d0:52:99:e9:
                    71:5b:9a:f2:fc:d4:a7:2b:24:8b:3d:02:49:20:ac:
                    74:c7:3a:8d:ce:3c:e2:eb:32:fb:8b:ec:84:96:c2:
                    fc:ed:ae:18:80:b4:60:a4:1f:cf:3c:2b:8d:89:a3:
                    ed:7b:fe:2d:6d:a1:b5:2d:b4:d0:91:19:16:6b:cf:
                    5e:17:23:3e:35:90:01:73:f7:91:9a:e8:bb:1a:1e:
                    29:97:a7:55:87:31:28:ff:b6:fc:1e:21:1d:bf:98:
                    7e:b7:8b:42:0b:2d:65:67:ec:c4:a3:c4:ef:96:0b:
                    35:65
                Exponent: 65537 (0x10001)
        X509v3 extensions:
            X509v3 Basic Constraints: 
                CA:FALSE
            X509v3 Subject Key Identifier: 
                BB:32:7D:D4:9E:FC:B4:BE:03:8B:B0:E4:1E:14:C0:CE:DB:19:54:04
            X509v3 Authority Key Identifier: 
                3C:E7:36:3F:17:26:50:E7:59:68:87:AC:0F:0E:5F:76:C6:9E:44:26
            X509v3 Key Usage: 
                Digital Signature, Key Encipherment
            X509v3 Extended Key Usage: 
                TLS Web Client Authentication
            X509v3 CRL Distribution Points: 
                Full Name:
                  URI:http://localhost:3000/static/intermediate.crl

            1.2.3.4.5.6.7.8.1: 
                ...{"Zero Trust Gateway":"Policy Admin","PKI Management":"Cert Operator","HSM Operation":"NA","IAM":"NA","Security Analytics":"NA","Crypto Vault":"NA"}
    Signature Algorithm: sha256WithRSAEncryption
    Signature Value:
        88:4d:cc:75:9d:95:f9:a1:ce:81:e3:6d:61:b3:29:94:3e:14:
        81:84:a4:13:98:80:33:00:bb:a8:7b:8f:83:d8:c0:29:c1:49:
        92:6b:7d:61:c3:eb:8e:59:43:bd:02:20:4b:bd:7a:96:35:3d:
        6f:f5:c0:b1:c1:6f:0f:d4:d0:43:80:a0:51:00:31:aa:d0:32:
        65:dd:a4:71:57:86:5b:5e:61:c7:ca:39:21:c2:d1:0f:8b:91:
        cd:1d:dd:3d:ac:f8:d4:f6:3f:51:52:cb:3d:8d:a0:2d:d2:bf:
        6a:bf:fb:86:8c:3a:a2:90:67:57:ee:ee:12:33:53:d8:9c:ef:
        6a:d3:a6:5a:8c:f7:aa:c2:00:e3:5d:86:65:f3:75:62:74:48:
        34:84:a7:d4:a6:e5:18:ac:d3:df:f3:d2:7e:1d:bd:03:2b:a6:
        af:ba:77:c7:55:70:ca:ee:b6:13:97:33:b1:01:1e:86:d6:a1:
        be:0e:d2:df:52:9e:3a:d0:c4:fb:a5:fc:56:c1:61:5f:19:04:
        76:e4:ea:a2:de:54:86:76:e3:48:e1:b6:67:ed:1e:7a:31:89:
        b6:3d:d4:2a:d1:d2:93:28:6e:2c:59:40:7b:bf:3b:32:74:13:
        50:1e:06:21:0f:e9:3e:b0:ea:73:2a:96:c9:0f:31:0e:40:7e:
        a7:45:3f:47:c5:3a:2b:92:0e:5f:1a:ed:e5:c1:61:0b:7c:d5:
        f1:89:dd:d1:a3:2d:43:6f:ba:9b:92:b5:8d:ca:f0:04:92:28:
        46:35:47:c1:51:93:4e:a2:3d:b0:ce:17:eb:59:90:c6:81:1a:
        bf:16:81:ea:44:d3:0c:61:b0:9e:0e:02:4c:41:57:23:c5:ad:
        de:65:41:19:88:32:90:f7:73:5f:50:40:ba:0c:66:7d:43:9e:
        2d:b0:0f:cf:9e:51:21:41:d6:59:f2:fd:bc:d5:1d:69:69:4c:
        d7:c6:4b:47:0d:c8:37:b5:67:ce:80:6c:1f:2c:af:5f:c5:d0:
        f9:d3:a7:ef:8b:da:ca:73:c9:96:e8:89:2c:60:dd:4a:b6:5d:
        cd:91:58:33:be:ad:df:f3:c7:1b:c6:08:af:82:5f:f3:dd:52:
        f0:82:45:8d:02:71:1f:77:92:ae:27:6b:b9:a0:32:3f:86:10:
        e1:72:61:7a:78:58:3b:90:39:34:69:4c:95:62:a3:ca:bf:59:
        d3:c5:15:5f:df:90:67:53:ef:8f:27:cb:ff:ef:94:11:ad:16:
        c8:1f:a6:13:eb:2c:9b:a3:83:be:b3:9c:f5:74:d4:8e:24:df:
        61:85:5d:6c:c9:c3:c0:f9:8a:67:ee:af:b5:ee:aa:4d:4b:ca:
        bb:50:7b:5d:bd:e9:13:0d
-----BEGIN CERTIFICATE-----
MIIFrTCCA5WgAwIBAgICEAUwDQYJKoZIhvcNAQELBQAwaDELMAkGA1UEBhMCSU4x
DjAMBgNVBAgMBUJpaGFyMRUwEwYDVQQKDAxEZW1vU2VydmljZXMxFTATBgNVBAsM
DEludGVybWVkaWF0ZTEbMBkGA1UEAwwSRGVtb0ludGVybWVkaWF0ZUNBMB4XDTI2
MDIyNDEwMTIzN1oXDTI3MDIyNDEwMTIzN1owbzELMAkGA1UEBhMCSU4xEjAQBgNV
BAgMCUpoYXJraGFuZDENMAsGA1UECgwETm9uZTENMAsGA1UECwwETm9uZTEOMAwG
A1UEAwwFY2hvdHUxHjAcBgkqhkiG9w0BCQEWD2Nob3R1QGdtYWlsLmNvbTCCASIw
DQYJKoZIhvcNAQEBBQADggEPADCCAQoCggEBAIhedw63umt5AKMqwCIsT2TPqhlM
SgUxALUM2ldmwngFiLOZE+LxKRDLIK7F7JXAeK5iu2XtJAC6P33eX0NvJ1UOR/Kt
vR2NB31smzqrGTVSUVEhEObj/o3hSs0jsUchnl4f7Y69GU17Kf12JF4mLH6ADWf2
vqmMhTvaJCNnVHBCdWnnl4MxTfdplEaTtaoIg4HQUpnpcVua8vzUpyskiz0CSSCs
dMc6jc484usy+4vshJbC/O2uGIC0YKQfzzwrjYmj7Xv+LW2htS200JEZFmvPXhcj
PjWQAXP3kZrouxoeKZenVYcxKP+2/B4hHb+YfreLQgstZWfsxKPE75YLNWUCAwEA
AaOCAVgwggFUMAkGA1UdEwQCMAAwHQYDVR0OBBYEFLsyfdSe/LS+A4uw5B4UwM7b
GVQEMB8GA1UdIwQYMBaAFDznNj8XJlDnWWiHrA8OX3bGnkQmMAsGA1UdDwQEAwIF
oDATBgNVHSUEDDAKBggrBgEFBQcDAjA+BgNVHR8ENzA1MDOgMaAvhi1odHRwOi8v
bG9jYWxob3N0OjMwMDAvc3RhdGljL2ludGVybWVkaWF0ZS5jcmwwgaQGCCoDBAUG
BwgBBIGXDIGUeyJaZXJvIFRydXN0IEdhdGV3YXkiOiJQb2xpY3kgQWRtaW4iLCJQ
S0kgTWFuYWdlbWVudCI6IkNlcnQgT3BlcmF0b3IiLCJIU00gT3BlcmF0aW9uIjoi
TkEiLCJJQU0iOiJOQSIsIlNlY3VyaXR5IEFuYWx5dGljcyI6Ik5BIiwiQ3J5cHRv
IFZhdWx0IjoiTkEifTANBgkqhkiG9w0BAQsFAAOCAgEAiE3MdZ2V+aHOgeNtYbMp
lD4UgYSkE5iAMwC7qHuPg9jAKcFJkmt9YcPrjllDvQIgS716ljU9b/XAscFvD9TQ
Q4CgUQAxqtAyZd2kcVeGW15hx8o5IcLRD4uRzR3dPaz41PY/UVLLPY2gLdK/ar/7
how6opBnV+7uEjNT2JzvatOmWoz3qsIA412GZfN1YnRINISn1KblGKzT3/PSfh29
Ayumr7p3x1Vwyu62E5czsQEehtahvg7S31KeOtDE+6X8VsFhXxkEduTqot5Uhnbj
SOG2Z+0eejGJtj3UKtHSkyhuLFlAe787MnQTUB4GIQ/pPrDqcyqWyQ8xDkB+p0U/
R8U6K5IOXxrt5cFhC3zV8Ynd0aMtQ2+6m5K1jcrwBJIoRjVHwVGTTqI9sM4X61mQ
xoEavxaB6kTTDGGwng4CTEFXI8Wt3mVBGYgykPdzX1BAugxmfUOeLbAPz55RIUHW
WfL9vNUdaWlM18ZLRw3IN7VnzoBsHyyvX8XQ+dOn74vaynPJluiJLGDdSrZdzZFY
M76t3/PHG8YIr4Jf891S8IJFjQJxH3eSridruaAyP4YQ4XJhenhYO5A5NGlMlWKj
yr9Z08UVX9+QZ1PvjyfL/++UEa0WyB+mE+ssm6ODvrOc9XTUjiTfYYVdbMnDwPmK
Z+6vte6qTUvKu1B7Xb3pEw0=
-----END CERTIFICATE-----
