Certificate:
    Data:
        Version: 3 (0x2)
        Serial Number: 4096 (0x1000)
        Signature Algorithm: sha256WithRSAEncryption
        Issuer: C=IN, ST=Bihar, O=DemoServices, OU=Intermediate, CN=DemoIntermediateCA
        Validity
            Not Before: Mar  5 06:42:52 2026 GMT
            Not After : Mar  5 06:42:52 2027 GMT
        Subject: C=IN, ST=Karntaka, O=CDAC, OU=Rise, CN=hundered/emailAddress=hundered@gmail.com
        Subject Public Key Info:
            Public Key Algorithm: rsaEncryption
                Public-Key: (2048 bit)
                Modulus:
                    00:94:96:98:05:6a:7c:3a:81:d0:82:11:59:70:3b:
                    4b:e3:43:dc:77:17:63:a7:7e:3f:b1:9d:6b:35:f4:
                    5a:c7:61:cc:23:27:5e:38:39:76:39:85:18:2e:00:
                    6d:c8:db:7d:6e:07:56:1f:62:cb:79:c2:df:f4:1d:
                    28:31:d5:9c:94:36:9a:56:ae:b5:9b:f5:19:b0:19:
                    a4:be:cc:72:b2:bc:70:20:55:43:11:e8:90:ef:62:
                    aa:76:b6:07:dd:f5:ec:d8:57:ec:af:0a:d4:4a:57:
                    7a:71:a1:ab:b4:01:78:97:b4:66:4d:0a:e0:69:6c:
                    4a:e6:fc:eb:ca:56:fe:ab:f8:b7:e5:55:7c:4d:e5:
                    2a:9b:d8:5e:a5:94:20:33:6e:3d:21:6f:e4:6a:c2:
                    a7:64:ed:91:0b:f3:18:70:e2:bb:56:65:ea:f2:7f:
                    15:29:c9:9e:72:fc:8b:6b:47:4e:09:5f:37:c1:32:
                    75:dc:a0:c6:03:d8:38:ef:6d:8d:02:3e:29:bc:e0:
                    05:4a:53:7a:16:d9:e5:8c:7a:c4:f0:b5:46:1f:91:
                    d1:3b:f5:71:f1:e3:2f:8c:a4:7d:9f:3b:a4:ba:28:
                    c6:c4:65:c5:0e:2c:1f:19:4b:62:ed:65:4f:1a:80:
                    19:d9:89:a1:80:0c:6d:49:5f:5f:f6:a1:37:a2:60:
                    67:a9
                Exponent: 65537 (0x10001)
        X509v3 extensions:
            X509v3 Basic Constraints: 
                CA:FALSE
            X509v3 Subject Key Identifier: 
                F4:1E:16:82:7E:FC:93:2F:C5:57:2F:4F:A5:0E:23:0A:94:DF:8D:CA
            X509v3 Authority Key Identifier: 
                3C:E7:36:3F:17:26:50:E7:59:68:87:AC:0F:0E:5F:76:C6:9E:44:26
            X509v3 Key Usage: 
                Digital Signature, Key Encipherment
            X509v3 Extended Key Usage: 
                TLS Web Client Authentication
            X509v3 CRL Distribution Points: 
                Full Name:
                  URI:http://localhost:3000/static/intermediate.crl

            1.2.3.4.5.6.7.8.1: 
                ...{"Zero Trust Gateway":"Access Auditor","PKI Management":"PKI Auditor","HSM Operation":"NA","IAM":"NA","Security Analytics":"NA","Crypto Vault":"NA"}
    Signature Algorithm: sha256WithRSAEncryption
    Signature Value:
        b5:c1:52:7d:05:87:95:40:12:9c:80:60:94:6d:82:65:94:24:
        7a:50:42:e9:80:61:22:52:45:06:55:eb:09:7e:7d:88:2c:46:
        77:46:52:3c:8b:0a:6a:a6:30:57:d4:e3:34:bf:10:ab:3b:ed:
        e0:66:8d:dd:bc:f8:63:34:38:ee:ec:39:46:32:90:4b:72:20:
        2b:7a:dd:c0:ea:b7:3c:65:07:9d:53:52:d4:a0:ed:67:eb:47:
        04:30:0d:37:45:09:79:30:b2:05:32:b4:19:f2:db:03:5e:b0:
        1f:47:da:3e:7e:f3:02:d7:ba:47:3d:30:4e:5f:d9:05:a4:e6:
        60:43:f8:af:dd:62:19:06:7c:c3:4e:e4:e4:80:7a:57:ab:6a:
        0f:23:13:c8:40:ee:00:f0:28:51:fd:d7:fa:13:f4:73:74:98:
        96:d8:c3:52:91:80:be:3c:9b:b3:72:7d:7f:e4:2e:3f:57:dd:
        47:64:11:30:fa:4d:1b:c0:85:b8:ed:33:5b:72:8a:41:ba:70:
        24:10:92:96:f8:f3:b8:d8:fa:8c:a2:d3:b7:40:c8:38:82:1a:
        fb:2b:ee:cf:16:b4:36:4d:e4:10:74:d8:d3:59:86:20:41:0b:
        18:10:96:8c:e1:dd:0c:9a:50:db:da:f3:1a:e9:73:88:75:b3:
        40:42:1d:63:1c:dd:01:01:14:3e:49:b8:00:99:7a:26:48:a7:
        73:be:3b:c3:83:5d:96:62:26:66:c9:43:e1:e8:9e:8f:30:50:
        71:a6:ed:e6:a5:82:3e:f8:28:60:a3:e8:fc:db:3d:2c:af:f9:
        54:de:e9:83:47:ec:b1:f7:f3:2a:42:cf:d9:4f:1e:3f:fc:30:
        a4:8c:a6:72:ff:3f:40:08:66:4c:f2:2c:1f:0c:0d:35:e8:66:
        67:0a:08:3f:7f:ec:39:b6:ef:9a:2e:c1:6d:01:0d:d7:c1:5f:
        16:05:d5:5e:26:96:0f:f9:3d:81:67:1f:98:69:28:43:39:dd:
        fd:d8:b1:67:e6:ce:10:3a:97:67:99:ab:b4:f4:ac:55:d3:ee:
        63:70:41:87:40:12:e3:73:e6:cc:b4:f2:3a:fe:9e:1c:5a:7b:
        22:f4:49:a0:e9:71:8c:30:49:5b:07:dc:d5:0e:69:17:f7:e4:
        60:56:0c:71:0a:27:ea:e5:69:11:fb:2a:dc:d9:b9:46:f4:98:
        3e:cb:e5:49:fa:fb:af:24:8a:c0:87:d4:ac:a3:5b:58:5b:1d:
        4c:d9:92:5f:47:e8:33:6d:dc:60:23:a7:cd:79:80:b0:17:13:
        9f:65:2c:f4:e8:8d:98:b7:44:4b:29:96:78:16:09:b5:01:df:
        d7:37:a0:49:f8:c5:92:09
-----BEGIN CERTIFICATE-----
MIIFsjCCA5qgAwIBAgICEAAwDQYJKoZIhvcNAQELBQAwaDELMAkGA1UEBhMCSU4x
DjAMBgNVBAgMBUJpaGFyMRUwEwYDVQQKDAxEZW1vU2VydmljZXMxFTATBgNVBAsM
DEludGVybWVkaWF0ZTEbMBkGA1UEAwwSRGVtb0ludGVybWVkaWF0ZUNBMB4XDTI2
MDMwNTA2NDI1MloXDTI3MDMwNTA2NDI1MlowdDELMAkGA1UEBhMCSU4xETAPBgNV
BAgMCEthcm50YWthMQ0wCwYDVQQKDARDREFDMQ0wCwYDVQQLDARSaXNlMREwDwYD
VQQDDAhodW5kZXJlZDEhMB8GCSqGSIb3DQEJARYSaHVuZGVyZWRAZ21haWwuY29t
MIIBIjANBgkqhkiG9w0BAQEFAAOCAQ8AMIIBCgKCAQEAlJaYBWp8OoHQghFZcDtL
40Pcdxdjp34/sZ1rNfRax2HMIydeODl2OYUYLgBtyNt9bgdWH2LLecLf9B0oMdWc
lDaaVq61m/UZsBmkvsxysrxwIFVDEeiQ72KqdrYH3fXs2FfsrwrUSld6caGrtAF4
l7RmTQrgaWxK5vzrylb+q/i35VV8TeUqm9hepZQgM249IW/kasKnZO2RC/MYcOK7
VmXq8n8VKcmecvyLa0dOCV83wTJ13KDGA9g4722NAj4pvOAFSlN6FtnljHrE8LVG
H5HRO/Vx8eMvjKR9nzukuijGxGXFDiwfGUti7WVPGoAZ2YmhgAxtSV9f9qE3omBn
qQIDAQABo4IBWDCCAVQwCQYDVR0TBAIwADAdBgNVHQ4EFgQU9B4Wgn78ky/FVy9P
pQ4jCpTfjcowHwYDVR0jBBgwFoAUPOc2PxcmUOdZaIesDw5fdsaeRCYwCwYDVR0P
BAQDAgWgMBMGA1UdJQQMMAoGCCsGAQUFBwMCMD4GA1UdHwQ3MDUwM6AxoC+GLWh0
dHA6Ly9sb2NhbGhvc3Q6MzAwMC9zdGF0aWMvaW50ZXJtZWRpYXRlLmNybDCBpAYI
KgMEBQYHCAEEgZcMgZR7Ilplcm8gVHJ1c3QgR2F0ZXdheSI6IkFjY2VzcyBBdWRp
dG9yIiwiUEtJIE1hbmFnZW1lbnQiOiJQS0kgQXVkaXRvciIsIkhTTSBPcGVyYXRp
b24iOiJOQSIsIklBTSI6Ik5BIiwiU2VjdXJpdHkgQW5hbHl0aWNzIjoiTkEiLCJD
cnlwdG8gVmF1bHQiOiJOQSJ9MA0GCSqGSIb3DQEBCwUAA4ICAQC1wVJ9BYeVQBKc
gGCUbYJllCR6UELpgGEiUkUGVesJfn2ILEZ3RlI8iwpqpjBX1OM0vxCrO+3gZo3d
vPhjNDju7DlGMpBLciAret3A6rc8ZQedU1LUoO1n60cEMA03RQl5MLIFMrQZ8tsD
XrAfR9o+fvMC17pHPTBOX9kFpOZgQ/iv3WIZBnzDTuTkgHpXq2oPIxPIQO4A8ChR
/df6E/RzdJiW2MNSkYC+PJuzcn1/5C4/V91HZBEw+k0bwIW47TNbcopBunAkEJKW
+PO42PqMotO3QMg4ghr7K+7PFrQ2TeQQdNjTWYYgQQsYEJaM4d0MmlDb2vMa6XOI
dbNAQh1jHN0BARQ+SbgAmXomSKdzvjvDg12WYiZmyUPh6J6PMFBxpu3mpYI++Chg
o+j82z0sr/lU3umDR+yx9/MqQs/ZTx4//DCkjKZy/z9ACGZM8iwfDA016GZnCgg/
f+w5tu+aLsFtAQ3XwV8WBdVeJpYP+T2BZx+YaShDOd392LFn5s4QOpdnmau09KxV
0+5jcEGHQBLjc+bMtPI6/p4cWnsi9Emg6XGMMElbB9zVDmkX9+RgVgxxCifq5WkR
+yrc2blG9Jg+y+VJ+vuvJIrAh9Sso1tYWx1M2ZJfR+gzbdxgI6fNeYCwFxOfZSz0
6I2Yt0RLKZZ4Fgm1Ad/XN6BJ+MWSCQ==
-----END CERTIFICATE-----
