Certificate:
    Data:
        Version: 3 (0x2)
        Serial Number: 4098 (0x1002)
        Signature Algorithm: sha256WithRSAEncryption
        Issuer: C=IN, ST=Bihar, O=DemoServices, OU=Intermediate, CN=DemoIntermediateCA
        Validity
            Not Before: Feb 22 05:36:10 2026 GMT
            Not After : Feb 22 05:36:10 2027 GMT
        Subject: C=IN, ST=Bihar, O=None, OU=None, CN=kaman/emailAddress=2003.v.vishal@gmail.com
        Subject Public Key Info:
            Public Key Algorithm: rsaEncryption
                Public-Key: (2048 bit)
                Modulus:
                    00:9c:77:62:63:c4:48:88:e6:00:18:b3:07:22:7a:
                    99:18:c1:89:7d:eb:69:c3:9f:5c:be:87:02:7f:e7:
                    1c:5a:41:7f:47:71:23:08:a2:52:05:b8:c9:72:60:
                    24:86:9d:e8:2b:32:c7:51:35:2d:9c:ef:a4:49:7a:
                    fa:34:64:39:f2:96:68:12:2d:d3:4f:bc:a9:86:36:
                    e2:07:fe:d5:0f:69:49:aa:1c:fa:b7:25:6d:09:9b:
                    b9:b7:9d:79:9e:15:fc:35:54:f8:6e:54:66:02:9e:
                    19:dd:e9:ef:d8:b4:da:88:7c:c5:b7:e8:ad:14:c8:
                    67:86:bb:5b:44:bf:8e:c9:2a:0a:9c:c7:d6:fc:7b:
                    3a:3f:f7:80:e4:fb:b2:78:5a:81:0c:de:75:08:a6:
                    23:c6:70:c6:65:d1:b1:98:33:8a:77:3f:f4:da:e6:
                    93:6a:9f:43:18:51:8c:19:a7:dd:de:ac:66:2c:8d:
                    58:9b:6f:2f:47:9d:c5:ba:d6:4a:cf:f5:3a:45:2c:
                    1d:20:b6:02:7b:9e:19:70:c2:93:fc:10:1f:31:19:
                    0f:d0:65:2d:88:d3:27:ca:ba:d5:9c:d9:14:cd:80:
                    02:a1:0f:80:75:22:d1:f7:96:ee:05:d1:c5:89:60:
                    83:b2:55:86:58:59:95:3a:58:68:e9:30:32:0b:41:
                    6a:19
                Exponent: 65537 (0x10001)
        X509v3 extensions:
            X509v3 Basic Constraints: 
                CA:FALSE
            X509v3 Subject Key Identifier: 
                C6:C4:15:C6:D4:41:46:BE:1A:54:94:7C:0B:32:EE:CB:26:6E:4C:EC
            X509v3 Authority Key Identifier: 
                3C:E7:36:3F:17:26:50:E7:59:68:87:AC:0F:0E:5F:76:C6:9E:44:26
            X509v3 Key Usage: 
                Digital Signature, Key Encipherment
            X509v3 Extended Key Usage: 
                TLS Web Client Authentication
            X509v3 CRL Distribution Points: 
                Full Name:
                  URI:http://localhost:3000/static/intermediate.crl

            1.2.3.4.5.6.7.8.1: 
                ..."{\"Zero Trust Gateway\":\"NA\",\"PKI Management\":\"Cert Operator\",\"HSM Operation\":\"NA\",\"IAM\":\"NA\",\"Security Analytics\":\"NA\",\"Crypto Vault\":\"NA\"}"
    Signature Algorithm: sha256WithRSAEncryption
    Signature Value:
        37:68:5e:8a:d4:94:e2:60:43:df:03:ca:62:14:4f:99:29:5f:
        74:74:36:f8:d0:b4:7d:e0:61:ad:fa:e3:1e:4f:d7:a0:91:10:
        65:a9:c8:45:bd:52:17:a4:96:18:19:02:e6:da:95:9d:4c:1f:
        80:e8:b0:3f:e3:2e:31:f0:b6:c7:72:f5:e1:fa:28:2f:28:2a:
        3d:09:c6:d8:3f:ef:2a:02:c5:80:7d:fc:ae:5c:b9:7d:e4:6b:
        60:3c:1c:75:27:fc:01:52:f1:f2:07:d6:9a:be:6d:23:f6:c2:
        2b:0a:c4:fd:e1:fb:a9:9f:15:72:ce:00:25:11:5a:86:6a:d1:
        bf:cc:24:01:98:c6:72:28:69:4f:83:8f:89:b5:d8:72:5b:07:
        f8:ff:32:69:73:3c:f6:38:7d:cc:a2:c8:59:24:38:df:63:3c:
        87:35:ba:24:5f:42:cc:d0:2c:0c:88:a9:14:28:c1:6c:26:53:
        3e:a2:b3:3d:99:90:49:cd:6a:8d:98:9f:16:4b:75:f9:e5:c5:
        2f:9c:bb:fc:b7:9b:fe:06:7d:5b:35:2e:90:16:2c:8a:bc:d3:
        17:4f:a4:07:d5:5e:f2:6d:25:4a:40:73:ee:99:83:0f:dc:e3:
        83:5b:de:14:df:e4:27:30:8a:a9:db:98:be:3c:e5:4f:32:b4:
        54:46:56:25:24:e7:21:b9:0e:9d:ee:72:f2:6f:5f:98:82:05:
        93:df:1f:31:16:0b:53:d7:5c:be:37:9a:b5:29:83:36:71:d7:
        f5:8e:99:12:1d:62:92:24:2d:ce:46:ab:b2:ec:29:2c:fd:86:
        19:22:f1:49:86:1e:5e:38:f4:35:2e:1d:93:c5:cd:7b:9c:71:
        a7:bf:5a:59:0d:57:8d:36:56:65:1a:ae:43:f4:5a:20:7a:f2:
        55:db:4e:94:dd:9a:d8:91:2b:41:4b:7d:4f:b4:29:14:8e:07:
        5c:54:77:87:89:31:cc:ae:09:24:6f:54:f5:60:f8:c4:40:65:
        6a:ce:54:e1:d0:08:34:d0:62:c6:c7:40:88:b7:7b:a9:35:3d:
        19:82:d8:02:7e:d4:c7:1f:90:f2:d3:4c:19:c3:65:4f:c5:d4:
        6f:00:e7:c6:82:aa:26:be:2a:bf:62:9b:aa:de:ae:f2:d3:5b:
        47:97:0c:9e:ad:5c:2e:dc:1a:69:50:63:24:ca:68:27:ea:24:
        02:1d:23:b4:b5:eb:68:6c:93:73:03:b4:b5:32:57:83:34:5d:
        46:eb:f4:8b:83:e2:96:94:a1:65:1f:a9:4f:ab:c4:05:08:56:
        52:48:1e:9b:69:4b:8f:f7:56:62:f1:49:ba:b5:1d:d8:54:61:
        ca:64:cd:e4:a4:94:c2:71
-----BEGIN CERTIFICATE-----
MIIFwTCCA6mgAwIBAgICEAIwDQYJKoZIhvcNAQELBQAwaDELMAkGA1UEBhMCSU4x
DjAMBgNVBAgMBUJpaGFyMRUwEwYDVQQKDAxEZW1vU2VydmljZXMxFTATBgNVBAsM
DEludGVybWVkaWF0ZTEbMBkGA1UEAwwSRGVtb0ludGVybWVkaWF0ZUNBMB4XDTI2
MDIyMjA1MzYxMFoXDTI3MDIyMjA1MzYxMFowczELMAkGA1UEBhMCSU4xDjAMBgNV
BAgMBUJpaGFyMQ0wCwYDVQQKDAROb25lMQ0wCwYDVQQLDAROb25lMQ4wDAYDVQQD
DAVrYW1hbjEmMCQGCSqGSIb3DQEJARYXMjAwMy52LnZpc2hhbEBnbWFpbC5jb20w
ggEiMA0GCSqGSIb3DQEBAQUAA4IBDwAwggEKAoIBAQCcd2JjxEiI5gAYswciepkY
wYl962nDn1y+hwJ/5xxaQX9HcSMIolIFuMlyYCSGnegrMsdRNS2c76RJevo0ZDny
lmgSLdNPvKmGNuIH/tUPaUmqHPq3JW0Jm7m3nXmeFfw1VPhuVGYCnhnd6e/YtNqI
fMW36K0UyGeGu1tEv47JKgqcx9b8ezo/94Dk+7J4WoEM3nUIpiPGcMZl0bGYM4p3
P/Ta5pNqn0MYUYwZp93erGYsjVibby9HncW61krP9TpFLB0gtgJ7nhlwwpP8EB8x
GQ/QZS2I0yfKutWc2RTNgAKhD4B1ItH3lu4F0cWJYIOyVYZYWZU6WGjpMDILQWoZ
AgMBAAGjggFoMIIBZDAJBgNVHRMEAjAAMB0GA1UdDgQWBBTGxBXG1EFGvhpUlHwL
Mu7LJm5M7DAfBgNVHSMEGDAWgBQ85zY/FyZQ51loh6wPDl92xp5EJjALBgNVHQ8E
BAMCBaAwEwYDVR0lBAwwCgYIKwYBBQUHAwIwPgYDVR0fBDcwNTAzoDGgL4YtaHR0
cDovL2xvY2FsaG9zdDozMDAwL3N0YXRpYy9pbnRlcm1lZGlhdGUuY3JsMIG0Bggq
AwQFBgcIAQSBpwyBpCJ7XCJaZXJvIFRydXN0IEdhdGV3YXlcIjpcIk5BXCIsXCJQ
S0kgTWFuYWdlbWVudFwiOlwiQ2VydCBPcGVyYXRvclwiLFwiSFNNIE9wZXJhdGlv
blwiOlwiTkFcIixcIklBTVwiOlwiTkFcIixcIlNlY3VyaXR5IEFuYWx5dGljc1wi
OlwiTkFcIixcIkNyeXB0byBWYXVsdFwiOlwiTkFcIn0iMA0GCSqGSIb3DQEBCwUA
A4ICAQA3aF6K1JTiYEPfA8piFE+ZKV90dDb40LR94GGt+uMeT9egkRBlqchFvVIX
pJYYGQLm2pWdTB+A6LA/4y4x8LbHcvXh+igvKCo9CcbYP+8qAsWAffyuXLl95Gtg
PBx1J/wBUvHyB9aavm0j9sIrCsT94fupnxVyzgAlEVqGatG/zCQBmMZyKGlPg4+J
tdhyWwf4/zJpczz2OH3MoshZJDjfYzyHNbokX0LM0CwMiKkUKMFsJlM+orM9mZBJ
zWqNmJ8WS3X55cUvnLv8t5v+Bn1bNS6QFiyKvNMXT6QH1V7ybSVKQHPumYMP3OOD
W94U3+QnMIqp25i+POVPMrRURlYlJOchuQ6d7nLyb1+YggWT3x8xFgtT11y+N5q1
KYM2cdf1jpkSHWKSJC3ORquy7Cks/YYZIvFJhh5eOPQ1Lh2Txc17nHGnv1pZDVeN
NlZlGq5D9FogevJV206U3ZrYkStBS31PtCkUjgdcVHeHiTHMrgkkb1T1YPjEQGVq
zlTh0Ag00GLGx0CIt3upNT0ZgtgCftTHH5Dy00wZw2VPxdRvAOfGgqomviq/Ypuq
3q7y01tHlwyerVwu3BppUGMkymgn6iQCHSO0tetobJNzA7S1MleDNF1G6/SLg+KW
lKFlH6lPq8QFCFZSSB6baUuP91Zi8Um6tR3YVGHKZM3kpJTCcQ==
-----END CERTIFICATE-----
