Certificate:
    Data:
        Version: 3 (0x2)
        Serial Number: 4098 (0x1002)
        Signature Algorithm: sha256WithRSAEncryption
        Issuer: C=IN, ST=Bihar, O=DemoServices, OU=Intermediate, CN=DemoIntermediateCA
        Validity
            Not Before: Mar  4 05:51:40 2026 GMT
            Not After : Mar  4 05:51:40 2027 GMT
        Subject: C=IN, ST=Jharkhand, O=None, OU=None, CN=one/emailAddress=one@gmail.com
        Subject Public Key Info:
            Public Key Algorithm: rsaEncryption
                Public-Key: (2048 bit)
                Modulus:
                    00:99:a5:ca:c7:39:d3:0a:d7:a4:70:30:9d:b2:34:
                    94:32:d9:ce:4b:fc:1b:27:cb:a3:cb:d1:2e:db:f5:
                    94:75:49:49:67:57:79:59:95:50:14:03:ac:1d:9e:
                    04:aa:95:73:50:cf:e8:ca:be:80:e3:c1:35:75:30:
                    69:b1:b3:18:81:0b:8b:ca:ff:95:23:90:a7:e6:7e:
                    d0:41:ba:6c:42:f0:fc:43:4b:9f:c4:43:9a:54:43:
                    d1:35:eb:d2:ce:16:5d:09:ac:ce:ad:f1:76:af:34:
                    46:ed:d8:97:2c:00:e9:68:24:07:d7:05:2e:01:55:
                    e7:7b:44:47:ab:f8:23:38:22:04:26:5e:5f:12:9f:
                    9d:33:c2:e5:af:e9:0d:2f:1d:da:e4:cc:2f:67:1f:
                    23:cc:bb:4f:e1:f4:3b:cc:ae:6c:16:ca:0e:87:81:
                    39:01:f5:64:3f:34:dd:7e:f9:27:f3:68:38:58:5c:
                    e2:79:53:e6:1a:c4:cb:5c:e7:c2:6a:02:1c:1b:e7:
                    e6:aa:e8:09:42:78:63:e3:54:d4:14:bd:4b:8c:90:
                    b1:48:d2:00:81:d2:5b:f5:37:6d:02:b1:d5:38:1f:
                    69:c1:a2:15:eb:e9:cc:c4:86:59:38:86:73:6e:62:
                    85:27:55:12:36:3a:48:ab:87:33:6b:70:b3:fe:e9:
                    4c:c1
                Exponent: 65537 (0x10001)
        X509v3 extensions:
            X509v3 Basic Constraints: 
                CA:FALSE
            X509v3 Subject Key Identifier: 
                FB:AE:9B:74:09:79:A0:31:3F:EB:9F:73:49:46:00:CB:04:F9:2B:E3
            X509v3 Authority Key Identifier: 
                3C:E7:36:3F:17:26:50:E7:59:68:87:AC:0F:0E:5F:76:C6:9E:44:26
            X509v3 Key Usage: 
                Digital Signature, Key Encipherment
            X509v3 Extended Key Usage: 
                TLS Web Client Authentication
            X509v3 CRL Distribution Points: 
                Full Name:
                  URI:http://localhost:3000/static/intermediate.crl

            1.2.3.4.5.6.7.8.1: 
                ...{"Zero Trust Gateway":"NA","PKI Management":"Cert Operator","HSM Operation":"NA","IAM":"NA","Security Analytics":"NA","Crypto Vault":"NA"}
    Signature Algorithm: sha256WithRSAEncryption
    Signature Value:
        a2:c6:1a:3f:08:67:13:af:aa:76:6a:f4:eb:52:10:17:5c:66:
        c6:da:11:26:bf:04:63:41:e3:cd:3b:11:6a:98:a5:74:02:08:
        f7:13:b7:45:5c:a6:15:3b:85:4f:7e:60:a9:c4:13:fe:8d:03:
        00:7c:cb:89:49:6d:ce:8c:00:9c:33:56:ed:f2:4a:be:da:dc:
        2d:b8:cc:28:8a:89:61:f9:e1:65:09:33:e5:70:e9:d0:c4:45:
        32:fd:2b:b8:7b:a4:3e:fd:34:09:d0:6d:b6:b8:90:a8:3f:ba:
        6c:32:d3:a6:6a:ed:67:96:3e:90:d4:01:aa:06:cf:81:f1:09:
        ce:09:e4:8e:2d:3f:9a:87:77:8e:af:ab:d6:f3:f8:da:d1:c7:
        ce:1d:1d:06:04:4f:46:3a:cd:0c:9b:1a:35:76:ef:e6:0c:86:
        43:1f:00:54:aa:fd:b9:7c:c7:f7:83:83:b8:d5:dd:a5:b9:01:
        7f:bb:61:1b:6b:d1:a7:85:89:d6:c2:0e:c9:1c:65:88:0a:aa:
        dd:90:90:89:97:02:e8:b8:e0:01:13:0d:41:da:ee:c4:b8:3a:
        91:9a:68:f7:66:5b:88:bd:58:57:10:73:56:89:e0:f1:23:af:
        44:35:2d:88:08:ed:69:0e:8c:bf:92:53:3e:36:bb:37:e3:69:
        37:fb:f4:83:cd:51:21:dc:46:a5:ab:11:11:01:ad:7d:eb:73:
        5c:0d:c1:ac:16:c6:d9:b3:c1:06:dd:35:ed:40:23:8b:9c:98:
        82:54:5d:ae:f3:57:a1:56:20:1c:c0:00:e9:fe:91:9e:4b:72:
        86:b5:fc:c5:85:68:45:dc:0d:98:f3:69:02:c4:28:b3:14:28:
        24:7e:20:da:32:1e:f1:a7:4e:0d:5a:81:9b:77:f1:1c:ad:da:
        dc:d6:a4:0b:1b:0d:f3:2b:a3:11:0d:14:c1:51:37:c4:8a:a6:
        f7:86:6a:a9:6d:b2:d0:0c:da:75:24:1b:03:bb:83:65:15:d6:
        3f:73:ae:9a:a4:99:78:5d:be:cd:7f:d8:ca:0e:26:69:e0:f9:
        9d:d4:08:c4:ea:1f:90:e8:fd:e9:8b:e1:0a:4a:83:6e:f0:1d:
        ec:d4:7e:21:df:e6:66:71:44:98:fd:09:62:bd:67:18:e2:58:
        a0:9f:60:6e:35:87:c6:fd:51:89:95:25:1a:c0:2c:d7:01:34:
        e6:f4:34:58:8a:eb:c6:6f:e0:32:e3:7f:a4:a0:b1:70:a7:f5:
        cd:b8:b0:6c:ca:57:b1:d0:a9:95:24:a9:52:8e:35:0a:a1:56:
        85:8f:f8:b4:47:30:2d:39:b9:b0:b5:8e:d7:8f:a7:4f:fb:d1:
        bb:45:43:bd:ba:69:ef:6a
-----BEGIN CERTIFICATE-----
MIIFnzCCA4egAwIBAgICEAIwDQYJKoZIhvcNAQELBQAwaDELMAkGA1UEBhMCSU4x
DjAMBgNVBAgMBUJpaGFyMRUwEwYDVQQKDAxEZW1vU2VydmljZXMxFTATBgNVBAsM
DEludGVybWVkaWF0ZTEbMBkGA1UEAwwSRGVtb0ludGVybWVkaWF0ZUNBMB4XDTI2
MDMwNDA1NTE0MFoXDTI3MDMwNDA1NTE0MFowazELMAkGA1UEBhMCSU4xEjAQBgNV
BAgMCUpoYXJraGFuZDENMAsGA1UECgwETm9uZTENMAsGA1UECwwETm9uZTEMMAoG
A1UEAwwDb25lMRwwGgYJKoZIhvcNAQkBFg1vbmVAZ21haWwuY29tMIIBIjANBgkq
hkiG9w0BAQEFAAOCAQ8AMIIBCgKCAQEAmaXKxznTCtekcDCdsjSUMtnOS/wbJ8uj
y9Eu2/WUdUlJZ1d5WZVQFAOsHZ4EqpVzUM/oyr6A48E1dTBpsbMYgQuLyv+VI5Cn
5n7QQbpsQvD8Q0ufxEOaVEPRNevSzhZdCazOrfF2rzRG7diXLADpaCQH1wUuAVXn
e0RHq/gjOCIEJl5fEp+dM8Llr+kNLx3a5MwvZx8jzLtP4fQ7zK5sFsoOh4E5AfVk
PzTdfvkn82g4WFzieVPmGsTLXOfCagIcG+fmqugJQnhj41TUFL1LjJCxSNIAgdJb
9TdtArHVOB9pwaIV6+nMxIZZOIZzbmKFJ1USNjpIq4cza3Cz/ulMwQIDAQABo4IB
TjCCAUowCQYDVR0TBAIwADAdBgNVHQ4EFgQU+66bdAl5oDE/659zSUYAywT5K+Mw
HwYDVR0jBBgwFoAUPOc2PxcmUOdZaIesDw5fdsaeRCYwCwYDVR0PBAQDAgWgMBMG
A1UdJQQMMAoGCCsGAQUFBwMCMD4GA1UdHwQ3MDUwM6AxoC+GLWh0dHA6Ly9sb2Nh
bGhvc3Q6MzAwMC9zdGF0aWMvaW50ZXJtZWRpYXRlLmNybDCBmgYIKgMEBQYHCAEE
gY0MgYp7Ilplcm8gVHJ1c3QgR2F0ZXdheSI6Ik5BIiwiUEtJIE1hbmFnZW1lbnQi
OiJDZXJ0IE9wZXJhdG9yIiwiSFNNIE9wZXJhdGlvbiI6Ik5BIiwiSUFNIjoiTkEi
LCJTZWN1cml0eSBBbmFseXRpY3MiOiJOQSIsIkNyeXB0byBWYXVsdCI6Ik5BIn0w
DQYJKoZIhvcNAQELBQADggIBAKLGGj8IZxOvqnZq9OtSEBdcZsbaESa/BGNB4807
EWqYpXQCCPcTt0VcphU7hU9+YKnEE/6NAwB8y4lJbc6MAJwzVu3ySr7a3C24zCiK
iWH54WUJM+Vw6dDERTL9K7h7pD79NAnQbba4kKg/umwy06Zq7WeWPpDUAaoGz4Hx
Cc4J5I4tP5qHd46vq9bz+NrRx84dHQYET0Y6zQybGjV27+YMhkMfAFSq/bl8x/eD
g7jV3aW5AX+7YRtr0aeFidbCDskcZYgKqt2QkImXAui44AETDUHa7sS4OpGaaPdm
W4i9WFcQc1aJ4PEjr0Q1LYgI7WkOjL+SUz42uzfjaTf79IPNUSHcRqWrEREBrX3r
c1wNwawWxtmzwQbdNe1AI4ucmIJUXa7zV6FWIBzAAOn+kZ5Lcoa1/MWFaEXcDZjz
aQLEKLMUKCR+INoyHvGnTg1agZt38Ryt2tzWpAsbDfMroxENFMFRN8SKpveGaqlt
stAM2nUkGwO7g2UV1j9zrpqkmXhdvs1/2MoOJmng+Z3UCMTqH5Do/emL4QpKg27w
HezUfiHf5mZxRJj9CWK9ZxjiWKCfYG41h8b9UYmVJRrALNcBNOb0NFiK68Zv4DLj
f6SgsXCn9c24sGzKV7HQqZUkqVKONQqhVoWP+LRHMC05ubC1jtePp0/70btFQ726
ae9q
-----END CERTIFICATE-----
