Certificate:
    Data:
        Version: 3 (0x2)
        Serial Number: 4100 (0x1004)
        Signature Algorithm: sha256WithRSAEncryption
        Issuer: C=IN, ST=Bihar, O=DemoServices, OU=Intermediate, CN=DemoIntermediateCA
        Validity
            Not Before: Feb 23 03:34:38 2026 GMT
            Not After : Feb 23 03:34:38 2027 GMT
        Subject: C=IN, ST=Jharkhand, O=None, OU=None, CN=ravan/emailAddress=ravan@gmail.com
        Subject Public Key Info:
            Public Key Algorithm: rsaEncryption
                Public-Key: (2048 bit)
                Modulus:
                    00:99:01:d7:00:a0:ba:32:aa:54:a5:56:0f:72:db:
                    05:8c:7d:c5:19:f6:69:f0:3f:78:eb:ed:c1:8f:f0:
                    82:2f:c6:e5:25:79:d6:82:81:3c:3e:28:70:a1:e6:
                    d8:21:23:2a:9b:7f:fd:1a:c9:b0:ec:6b:ef:9c:73:
                    f1:54:0c:85:73:fe:ff:58:9f:03:a7:07:c0:7d:a1:
                    96:23:e5:1b:bc:f0:9f:57:78:b8:86:29:a5:e4:c8:
                    f2:aa:34:4f:f1:6c:cf:d4:fa:6a:df:9a:ab:3f:c6:
                    56:ad:c3:f6:32:3e:55:3c:ea:e4:b7:e0:2c:a9:c2:
                    80:67:a9:7f:cb:62:8e:ff:97:21:15:48:97:f1:4d:
                    14:dd:7f:10:5c:19:90:d4:7e:6d:15:30:36:d3:62:
                    da:97:be:2c:56:27:f6:54:cd:84:7e:5f:c2:80:b0:
                    83:77:50:e6:9c:94:d5:a7:68:8e:bd:e0:9c:0d:00:
                    b1:44:2b:5b:cb:a2:23:b6:e2:aa:fb:0b:c8:9c:e3:
                    64:5b:3f:b6:af:2d:95:5d:38:e7:37:e2:a8:44:48:
                    01:a0:d9:c6:4a:49:34:da:5d:c0:90:4b:cf:d6:70:
                    66:41:10:e8:18:8b:3d:ff:b3:4a:ff:0e:87:98:77:
                    74:ea:d0:93:6d:56:cf:07:97:af:9f:81:98:84:9a:
                    dc:41
                Exponent: 65537 (0x10001)
        X509v3 extensions:
            X509v3 Basic Constraints: 
                CA:FALSE
            X509v3 Subject Key Identifier: 
                F2:6E:F0:EC:8B:BA:D2:1E:2C:4B:71:C9:59:65:DA:38:1C:5A:37:AD
            X509v3 Authority Key Identifier: 
                3C:E7:36:3F:17:26:50:E7:59:68:87:AC:0F:0E:5F:76:C6:9E:44:26
            X509v3 Key Usage: 
                Digital Signature, Key Encipherment
            X509v3 Extended Key Usage: 
                TLS Web Client Authentication
            X509v3 CRL Distribution Points: 
                Full Name:
                  URI:http://localhost:3000/static/intermediate.crl

            1.2.3.4.5.6.7.8.1: 
                ...{"Zero Trust Gateway":"NA","PKI Management":"Cert Operator","HSM Operation":"NA","IAM":"NA","Security Analytics":"SOC Analyst","Crypto Vault":"NA"}
    Signature Algorithm: sha256WithRSAEncryption
    Signature Value:
        4e:46:bf:ce:8c:f5:9f:2b:ab:8e:2f:ed:ce:e8:7d:15:00:8d:
        c5:43:d3:d5:b3:d2:a5:ef:ad:5f:80:a0:dc:d1:57:38:3c:4a:
        09:ab:fb:2f:51:be:43:bf:56:f2:47:c1:e6:ce:6e:09:51:5c:
        d1:96:d6:7c:04:05:aa:e0:ad:aa:21:91:38:bd:fa:d1:be:87:
        86:57:57:39:60:8a:f8:03:03:5f:59:a6:47:96:20:b9:a3:1b:
        95:a2:b4:3a:9d:f8:31:e3:43:c6:a8:5b:9c:3b:b2:09:5b:a0:
        00:54:e8:ad:22:d7:d8:48:c4:d5:0d:92:16:ee:87:52:b8:b2:
        27:81:46:b2:a7:d3:ff:fd:99:04:12:20:29:23:dd:c8:07:c1:
        be:df:c9:0f:a5:0a:78:a5:7d:25:dd:4c:30:b4:94:4c:7b:5c:
        e8:d2:b6:80:9e:27:92:c4:47:06:b7:3d:06:d9:57:76:6a:f5:
        96:48:1d:4c:09:90:f9:85:a6:b6:04:10:eb:36:42:23:95:22:
        c5:23:9f:23:09:fb:65:52:12:64:f7:2f:78:50:45:2c:65:5b:
        26:e9:af:cb:4e:48:c9:00:69:03:ea:e7:00:23:7d:49:29:9c:
        9d:a3:50:cb:af:1c:47:50:3d:e5:3c:ff:e7:88:33:8f:bb:c3:
        47:2d:12:bb:b4:fd:7c:1b:89:ef:f2:54:0f:90:e3:8d:f1:de:
        97:6d:4c:37:fe:d5:c9:c3:86:a4:0f:af:44:7f:30:aa:bb:cc:
        e4:0a:d3:59:20:83:fe:47:71:86:29:9f:36:f2:20:6f:32:03:
        bb:19:77:ca:fe:e1:8f:ee:1d:7d:04:18:6c:7d:fa:bf:16:58:
        86:c0:c3:6d:84:95:b6:53:28:22:e8:19:95:fe:43:20:b9:02:
        d5:d2:3c:e4:d1:aa:18:35:ff:92:30:5c:18:d1:f3:f5:94:4f:
        42:c6:f0:52:bb:b0:fd:16:18:d3:d7:74:b0:10:ce:84:85:f3:
        cb:0a:37:b5:86:a4:ed:c9:d0:34:a9:4b:b6:af:ea:05:cf:a5:
        6e:0a:0b:24:53:50:7d:53:82:cb:71:75:1c:73:7f:8c:6a:eb:
        0a:85:6b:50:ea:9e:45:cb:ff:99:87:aa:b4:1f:2c:dc:59:9d:
        c5:6a:c4:6d:ab:39:7e:3c:6b:29:23:82:5b:66:b5:d9:01:f0:
        12:78:d0:8f:81:ea:51:e0:a8:2a:0a:da:03:aa:66:82:9c:c5:
        9a:2d:b8:97:6c:d7:c8:00:79:8a:ac:6a:22:b6:d9:dc:2b:97:
        f8:a7:ba:ef:b0:f2:f7:46:32:0c:19:f6:fd:2e:27:30:a4:57:
        4c:69:ac:31:63:6e:e1:f7
-----BEGIN CERTIFICATE-----
MIIFrDCCA5SgAwIBAgICEAQwDQYJKoZIhvcNAQELBQAwaDELMAkGA1UEBhMCSU4x
DjAMBgNVBAgMBUJpaGFyMRUwEwYDVQQKDAxEZW1vU2VydmljZXMxFTATBgNVBAsM
DEludGVybWVkaWF0ZTEbMBkGA1UEAwwSRGVtb0ludGVybWVkaWF0ZUNBMB4XDTI2
MDIyMzAzMzQzOFoXDTI3MDIyMzAzMzQzOFowbzELMAkGA1UEBhMCSU4xEjAQBgNV
BAgMCUpoYXJraGFuZDENMAsGA1UECgwETm9uZTENMAsGA1UECwwETm9uZTEOMAwG
A1UEAwwFcmF2YW4xHjAcBgkqhkiG9w0BCQEWD3JhdmFuQGdtYWlsLmNvbTCCASIw
DQYJKoZIhvcNAQEBBQADggEPADCCAQoCggEBAJkB1wCgujKqVKVWD3LbBYx9xRn2
afA/eOvtwY/wgi/G5SV51oKBPD4ocKHm2CEjKpt//RrJsOxr75xz8VQMhXP+/1if
A6cHwH2hliPlG7zwn1d4uIYppeTI8qo0T/Fsz9T6at+aqz/GVq3D9jI+VTzq5Lfg
LKnCgGepf8tijv+XIRVIl/FNFN1/EFwZkNR+bRUwNtNi2pe+LFYn9lTNhH5fwoCw
g3dQ5pyU1adojr3gnA0AsUQrW8uiI7biqvsLyJzjZFs/tq8tlV045zfiqERIAaDZ
xkpJNNpdwJBLz9ZwZkEQ6BiLPf+zSv8Oh5h3dOrQk21WzweXr5+BmISa3EECAwEA
AaOCAVcwggFTMAkGA1UdEwQCMAAwHQYDVR0OBBYEFPJu8OyLutIeLEtxyVll2jgc
WjetMB8GA1UdIwQYMBaAFDznNj8XJlDnWWiHrA8OX3bGnkQmMAsGA1UdDwQEAwIF
oDATBgNVHSUEDDAKBggrBgEFBQcDAjA+BgNVHR8ENzA1MDOgMaAvhi1odHRwOi8v
bG9jYWxob3N0OjMwMDAvc3RhdGljL2ludGVybWVkaWF0ZS5jcmwwgaMGCCoDBAUG
BwgBBIGWDIGTeyJaZXJvIFRydXN0IEdhdGV3YXkiOiJOQSIsIlBLSSBNYW5hZ2Vt
ZW50IjoiQ2VydCBPcGVyYXRvciIsIkhTTSBPcGVyYXRpb24iOiJOQSIsIklBTSI6
Ik5BIiwiU2VjdXJpdHkgQW5hbHl0aWNzIjoiU09DIEFuYWx5c3QiLCJDcnlwdG8g
VmF1bHQiOiJOQSJ9MA0GCSqGSIb3DQEBCwUAA4ICAQBORr/OjPWfK6uOL+3O6H0V
AI3FQ9PVs9Kl761fgKDc0Vc4PEoJq/svUb5Dv1byR8Hmzm4JUVzRltZ8BAWq4K2q
IZE4vfrRvoeGV1c5YIr4AwNfWaZHliC5oxuVorQ6nfgx40PGqFucO7IJW6AAVOit
ItfYSMTVDZIW7odSuLIngUayp9P//ZkEEiApI93IB8G+38kPpQp4pX0l3UwwtJRM
e1zo0raAnieSxEcGtz0G2Vd2avWWSB1MCZD5haa2BBDrNkIjlSLFI58jCftlUhJk
9y94UEUsZVsm6a/LTkjJAGkD6ucAI31JKZydo1DLrxxHUD3lPP/niDOPu8NHLRK7
tP18G4nv8lQPkOON8d6XbUw3/tXJw4akD69EfzCqu8zkCtNZIIP+R3GGKZ828iBv
MgO7GXfK/uGP7h19BBhsffq/FliGwMNthJW2Uygi6BmV/kMguQLV0jzk0aoYNf+S
MFwY0fP1lE9CxvBSu7D9FhjT13SwEM6EhfPLCje1hqTtydA0qUu2r+oFz6VuCgsk
U1B9U4LLcXUcc3+MausKhWtQ6p5Fy/+Zh6q0HyzcWZ3FasRtqzl+PGspI4JbZrXZ
AfASeNCPgepR4KgqCtoDqmaCnMWaLbiXbNfIAHmKrGoittncK5f4p7rvsPL3RjIM
Gfb9LicwpFdMaawxY27h9w==
-----END CERTIFICATE-----
