Certificate:
    Data:
        Version: 3 (0x2)
        Serial Number: 4100 (0x1004)
        Signature Algorithm: sha256WithRSAEncryption
        Issuer: C=IN, ST=Bihar, O=DemoServices, OU=Intermediate, CN=DemoIntermediateCA
        Validity
            Not Before: Mar  5 04:40:23 2026 GMT
            Not After : Mar  5 04:40:23 2027 GMT
        Subject: C=IN, ST=karnataka, O=cdac, OU=rise, CN=three/emailAddress=three@gmail.com
        Subject Public Key Info:
            Public Key Algorithm: rsaEncryption
                Public-Key: (2048 bit)
                Modulus:
                    00:90:03:c1:74:11:e6:3c:01:e7:fa:5b:32:23:36:
                    49:9c:1c:2c:5b:de:31:f7:d4:0d:c9:db:d3:65:95:
                    e2:49:13:00:e3:e7:47:c1:7b:49:93:49:a6:62:e9:
                    99:ab:3c:bc:22:52:11:f2:e0:09:a6:85:ba:6f:49:
                    ff:aa:0b:df:75:88:e2:75:f0:67:7a:ed:18:0e:47:
                    2f:f1:3f:04:fa:9a:e9:24:39:bc:05:a0:c7:8d:36:
                    79:92:45:7e:73:67:4f:f7:4d:f0:1d:f1:00:63:cd:
                    1a:98:19:03:be:10:7a:6f:c8:4e:76:5c:ad:6e:bb:
                    25:00:9f:b5:4c:6c:42:3e:26:5f:64:6f:6c:06:05:
                    90:39:df:79:43:6d:95:92:a1:1f:4e:cc:07:c7:2b:
                    12:7d:3d:a4:62:49:1c:46:b7:0f:cc:18:52:65:69:
                    ee:d6:af:7c:44:e4:6b:e7:81:ea:a4:b7:44:cb:5c:
                    c4:4e:89:30:82:6c:68:29:32:96:e5:28:69:87:78:
                    ec:62:a9:9e:ca:00:77:27:a9:17:ff:b1:60:6c:5a:
                    4c:79:80:b8:ea:89:3a:ff:bb:09:56:97:5c:c2:ec:
                    69:62:60:de:27:d1:18:b5:0c:26:3d:ea:7a:2b:fe:
                    87:91:81:25:fb:f2:98:84:fb:af:e8:f8:de:42:02:
                    06:8d
                Exponent: 65537 (0x10001)
        X509v3 extensions:
            X509v3 Basic Constraints: 
                CA:FALSE
            X509v3 Subject Key Identifier: 
                78:53:F8:F1:BB:BE:F8:EA:4B:14:0C:31:D8:6F:B1:8A:73:58:2B:4C
            X509v3 Authority Key Identifier: 
                3C:E7:36:3F:17:26:50:E7:59:68:87:AC:0F:0E:5F:76:C6:9E:44:26
            X509v3 Key Usage: 
                Digital Signature, Key Encipherment
            X509v3 Extended Key Usage: 
                TLS Web Client Authentication
            X509v3 CRL Distribution Points: 
                Full Name:
                  URI:http://localhost:3000/static/intermediate.crl

            1.2.3.4.5.6.7.8.1: 
                ...{"Zero Trust Gateway":"NA","PKI Management":"Cert Operator","HSM Operation":"Crypto Operator","IAM":"NA","Security Analytics":"NA","Crypto Vault":"NA"}
    Signature Algorithm: sha256WithRSAEncryption
    Signature Value:
        16:50:71:eb:ad:59:02:17:31:f9:55:6f:29:99:c6:51:7f:37:
        78:1d:d3:46:23:c3:d2:87:fe:f9:98:a1:e5:9e:b6:db:f8:ff:
        5a:6c:4d:73:ab:48:d0:81:99:39:de:14:68:a1:aa:9c:b6:0a:
        fa:70:ec:66:64:7c:be:03:50:d6:85:25:2b:7f:79:66:89:4d:
        46:09:c5:33:0b:9f:84:7d:3e:64:d6:d4:f8:42:ad:95:81:54:
        75:5c:01:b4:a8:37:49:91:f7:59:27:3d:f9:44:a7:c1:f3:89:
        2d:a2:f9:ca:2f:06:ee:af:8d:96:90:98:2c:36:17:26:54:52:
        56:f4:ce:59:3e:11:21:28:c6:16:69:b1:1f:61:69:35:7c:09:
        73:e5:d6:e0:2b:78:fd:84:79:ef:cc:48:aa:05:85:a9:a9:76:
        a1:c3:30:18:f1:b8:5d:53:61:a2:d0:18:6e:75:1e:65:19:3d:
        9b:ec:9d:94:ef:4d:c8:61:fb:62:21:be:9e:5e:0a:a6:43:a9:
        66:a6:d8:9c:1e:55:d4:9f:00:2b:69:02:68:3b:ec:32:59:d3:
        25:11:d6:28:34:bc:61:28:05:c8:61:dc:f8:5a:78:be:ba:e6:
        be:0c:34:c0:42:aa:24:80:c2:ae:be:61:7b:08:ca:e1:5d:b0:
        8f:fe:a4:b3:e3:93:8c:ad:2e:1d:4a:e7:c8:ff:c7:01:16:f3:
        47:52:e2:f7:42:d6:55:9f:82:7d:48:bf:7c:b3:f6:8c:be:12:
        61:ce:95:9a:c6:a6:ea:5c:30:6b:32:fb:9c:04:f3:54:92:f9:
        77:f0:22:66:7c:71:69:44:83:16:32:0c:25:e7:96:aa:aa:40:
        42:2d:e8:ef:a0:fc:67:b9:1f:29:d8:d7:68:81:1f:50:fb:c1:
        b2:02:c4:b4:76:f8:0e:0c:cd:1a:1d:bd:2f:66:47:44:f9:32:
        6f:a8:bc:2c:b5:31:a6:dc:61:0b:57:4d:eb:50:bf:f7:14:c5:
        b0:26:d2:79:ab:95:60:bb:8d:71:5b:51:b0:2e:30:fd:3b:14:
        72:8e:2b:c5:4b:1b:a2:65:f1:81:de:88:79:0d:e5:39:82:5d:
        f3:3e:92:ec:7b:ce:ba:91:8d:ff:f1:fb:1e:ea:20:ad:ee:bb:
        56:64:08:59:11:6b:73:79:da:e2:e0:9c:bc:f9:c8:e9:59:cf:
        8d:a7:a4:84:5e:5f:07:b6:e6:a2:38:ba:96:8c:7e:78:ca:66:
        8c:45:ea:ec:13:8d:08:a9:0a:f3:e7:46:3b:3d:9f:ac:49:1d:
        f9:b7:c2:5d:6a:93:c7:e7:a0:52:f8:e2:1a:3c:63:10:01:a5:
        46:b5:ca:b2:7a:16:5d:d7
-----BEGIN CERTIFICATE-----
MIIFsDCCA5igAwIBAgICEAQwDQYJKoZIhvcNAQELBQAwaDELMAkGA1UEBhMCSU4x
DjAMBgNVBAgMBUJpaGFyMRUwEwYDVQQKDAxEZW1vU2VydmljZXMxFTATBgNVBAsM
DEludGVybWVkaWF0ZTEbMBkGA1UEAwwSRGVtb0ludGVybWVkaWF0ZUNBMB4XDTI2
MDMwNTA0NDAyM1oXDTI3MDMwNTA0NDAyM1owbzELMAkGA1UEBhMCSU4xEjAQBgNV
BAgMCWthcm5hdGFrYTENMAsGA1UECgwEY2RhYzENMAsGA1UECwwEcmlzZTEOMAwG
A1UEAwwFdGhyZWUxHjAcBgkqhkiG9w0BCQEWD3RocmVlQGdtYWlsLmNvbTCCASIw
DQYJKoZIhvcNAQEBBQADggEPADCCAQoCggEBAJADwXQR5jwB5/pbMiM2SZwcLFve
MffUDcnb02WV4kkTAOPnR8F7SZNJpmLpmas8vCJSEfLgCaaFum9J/6oL33WI4nXw
Z3rtGA5HL/E/BPqa6SQ5vAWgx402eZJFfnNnT/dN8B3xAGPNGpgZA74Qem/ITnZc
rW67JQCftUxsQj4mX2RvbAYFkDnfeUNtlZKhH07MB8crEn09pGJJHEa3D8wYUmVp
7tavfETka+eB6qS3RMtcxE6JMIJsaCkyluUoaYd47GKpnsoAdyepF/+xYGxaTHmA
uOqJOv+7CVaXXMLsaWJg3ifRGLUMJj3qeiv+h5GBJfvymIT7r+j43kICBo0CAwEA
AaOCAVswggFXMAkGA1UdEwQCMAAwHQYDVR0OBBYEFHhT+PG7vvjqSxQMMdhvsYpz
WCtMMB8GA1UdIwQYMBaAFDznNj8XJlDnWWiHrA8OX3bGnkQmMAsGA1UdDwQEAwIF
oDATBgNVHSUEDDAKBggrBgEFBQcDAjA+BgNVHR8ENzA1MDOgMaAvhi1odHRwOi8v
bG9jYWxob3N0OjMwMDAvc3RhdGljL2ludGVybWVkaWF0ZS5jcmwwgacGCCoDBAUG
BwgBBIGaDIGXeyJaZXJvIFRydXN0IEdhdGV3YXkiOiJOQSIsIlBLSSBNYW5hZ2Vt
ZW50IjoiQ2VydCBPcGVyYXRvciIsIkhTTSBPcGVyYXRpb24iOiJDcnlwdG8gT3Bl
cmF0b3IiLCJJQU0iOiJOQSIsIlNlY3VyaXR5IEFuYWx5dGljcyI6Ik5BIiwiQ3J5
cHRvIFZhdWx0IjoiTkEifTANBgkqhkiG9w0BAQsFAAOCAgEAFlBx661ZAhcx+VVv
KZnGUX83eB3TRiPD0of++Zih5Z622/j/WmxNc6tI0IGZOd4UaKGqnLYK+nDsZmR8
vgNQ1oUlK395ZolNRgnFMwufhH0+ZNbU+EKtlYFUdVwBtKg3SZH3WSc9+USnwfOJ
LaL5yi8G7q+NlpCYLDYXJlRSVvTOWT4RISjGFmmxH2FpNXwJc+XW4Ct4/YR578xI
qgWFqal2ocMwGPG4XVNhotAYbnUeZRk9m+ydlO9NyGH7YiG+nl4KpkOpZqbYnB5V
1J8AK2kCaDvsMlnTJRHWKDS8YSgFyGHc+Fp4vrrmvgw0wEKqJIDCrr5hewjK4V2w
j/6ks+OTjK0uHUrnyP/HARbzR1Li90LWVZ+CfUi/fLP2jL4SYc6Vmsam6lwwazL7
nATzVJL5d/AiZnxxaUSDFjIMJeeWqqpAQi3o76D8Z7kfKdjXaIEfUPvBsgLEtHb4
DgzNGh29L2ZHRPkyb6i8LLUxptxhC1dN61C/9xTFsCbSeauVYLuNcVtRsC4w/TsU
co4rxUsbomXxgd6IeQ3lOYJd8z6S7HvOupGN//H7Huogre67VmQIWRFrc3na4uCc
vPnI6VnPjaekhF5fB7bmoji6lox+eMpmjEXq7BONCKkK8+dGOz2frEkd+bfCXWqT
x+egUvjiGjxjEAGlRrXKsnoWXdc=
-----END CERTIFICATE-----
