Certificate:
    Data:
        Version: 3 (0x2)
        Serial Number: 4099 (0x1003)
        Signature Algorithm: sha256WithRSAEncryption
        Issuer: C=IN, ST=Bihar, O=DemoServices, OU=Intermediate, CN=DemoIntermediateCA
        Validity
            Not Before: Mar  4 05:59:21 2026 GMT
            Not After : Mar  4 05:59:21 2027 GMT
        Subject: C=IN, ST=Bihar, O=None, OU=None, CN=two/emailAddress=2003.v.vishal@gmail.com
        Subject Public Key Info:
            Public Key Algorithm: rsaEncryption
                Public-Key: (2048 bit)
                Modulus:
                    00:94:2f:23:4a:d6:72:d9:45:ad:a6:24:cc:3a:bc:
                    77:ed:99:20:31:cb:55:47:37:44:30:43:30:1e:f9:
                    a1:5c:e7:94:82:fa:22:50:af:41:98:27:be:25:d2:
                    b6:d8:9f:13:57:f0:40:fd:37:85:a8:b3:ce:da:c5:
                    d8:a3:2f:ff:dc:6a:e5:4b:ad:d3:93:5f:2a:36:c8:
                    79:1d:99:9d:f6:5d:cf:b0:7c:83:e8:64:f5:bd:2f:
                    6c:ac:c4:71:5f:41:e9:eb:e6:da:70:44:60:6d:20:
                    b9:03:a8:5c:d6:88:7d:00:d0:a9:ab:03:7d:e7:e4:
                    a7:1a:c2:d1:54:ca:24:0b:c0:98:f2:27:54:fe:11:
                    60:ac:21:e0:ad:40:60:9e:fb:31:b7:61:4c:ae:e7:
                    3f:15:54:3d:f9:50:ff:16:ea:aa:c9:79:36:d5:a7:
                    f3:e6:04:b8:47:4a:db:7d:eb:f9:39:21:19:b5:2b:
                    7b:6c:e9:6e:91:8d:fa:3f:54:b1:a3:9f:38:89:7a:
                    11:43:ae:1c:33:f5:cc:83:90:31:5e:84:8d:91:24:
                    0c:d3:b6:98:86:72:de:53:eb:13:52:8e:10:25:42:
                    b5:68:0b:70:ce:bd:70:11:b8:80:dc:e9:3b:5a:50:
                    f0:26:7c:ff:e1:27:e8:23:ce:b1:b9:06:49:40:12:
                    d3:ed
                Exponent: 65537 (0x10001)
        X509v3 extensions:
            X509v3 Basic Constraints: 
                CA:FALSE
            X509v3 Subject Key Identifier: 
                EF:ED:20:5A:F1:5B:E3:47:23:02:63:3B:B0:C8:B1:BC:CA:43:1D:39
            X509v3 Authority Key Identifier: 
                3C:E7:36:3F:17:26:50:E7:59:68:87:AC:0F:0E:5F:76:C6:9E:44:26
            X509v3 Key Usage: 
                Digital Signature, Key Encipherment
            X509v3 Extended Key Usage: 
                TLS Web Client Authentication
            X509v3 CRL Distribution Points: 
                Full Name:
                  URI:http://localhost:3000/static/intermediate.crl

            1.2.3.4.5.6.7.8.1: 
                ...{"Zero Trust Gateway":"Access Auditor","PKI Management":"Cert Operator","HSM Operation":"Crypto Operator","IAM":"NA","Security Analytics":"NA","Crypto Vault":"NA"}
    Signature Algorithm: sha256WithRSAEncryption
    Signature Value:
        44:8a:76:ea:b8:c7:c6:0e:37:b9:01:a3:ee:d8:ae:4e:41:d4:
        8e:17:33:05:ee:f5:be:87:ab:c5:04:48:60:91:78:1a:e4:c4:
        a4:2c:d0:b0:b5:d1:fa:22:df:c3:19:99:90:4f:83:f2:41:10:
        10:0e:67:85:f3:a7:d7:b5:4e:ce:88:b4:cd:33:18:44:c1:e2:
        3c:26:0f:a3:8b:d4:2a:00:53:5d:d1:90:f5:eb:fb:74:25:df:
        f5:b6:10:76:1e:da:ee:5e:14:c1:ae:1c:a6:d8:9a:c9:cb:c6:
        ff:e9:ca:0e:ec:c8:cd:ca:3f:ee:4b:cc:69:ba:01:9c:f9:20:
        a1:e9:0e:85:b1:d0:36:ff:69:93:d2:d1:3d:c5:db:da:e0:23:
        dd:e9:66:87:8e:68:67:f7:f3:80:c0:40:3f:0b:19:bb:75:94:
        da:48:c4:6a:6e:e6:d7:31:1f:53:58:49:37:41:85:1a:6d:a5:
        9d:c6:67:68:b3:15:06:70:56:23:79:7d:dd:e0:f4:58:18:e5:
        58:7a:2e:48:2f:6f:93:b1:67:08:43:d8:42:71:1a:d1:5d:6b:
        df:7a:7b:1d:50:3d:12:5b:b5:a9:2a:58:ca:8c:3d:e2:69:66:
        24:5f:07:01:5d:af:46:9e:63:ea:39:cb:0f:47:07:c4:55:76:
        5b:f5:1d:ec:ea:99:86:7f:a9:2d:42:e8:41:b9:d2:f8:6b:87:
        8f:9c:73:4d:b9:4e:a5:60:33:b2:a4:65:41:41:a0:11:fa:d2:
        93:24:93:52:b6:5b:c5:f3:48:6a:e4:24:e6:a6:8b:b0:58:b7:
        eb:d9:13:d2:61:79:7a:f9:10:fb:f9:26:44:85:b7:70:d9:d6:
        b1:dc:fd:c6:f8:1d:4f:c0:d6:0a:66:48:83:be:a0:7d:92:b9:
        9f:d5:96:cb:6a:6a:bb:ab:9f:a1:64:6d:a3:a4:1e:a0:0a:d0:
        c7:85:c7:26:d8:00:08:8e:d2:00:89:a1:1f:96:17:60:7d:67:
        2b:78:df:e0:23:6d:18:ec:58:e2:73:04:00:c3:49:f1:2b:7e:
        72:5d:e4:cf:46:17:56:18:76:88:d5:3c:b2:ce:ff:b5:c6:0c:
        d9:e0:a9:41:20:0b:9a:30:06:b0:d7:55:54:af:88:52:ff:f1:
        0a:76:37:e3:a7:89:18:f4:31:21:40:01:90:65:51:8a:1f:06:
        58:81:ce:b7:db:b8:d8:fd:02:32:0e:f9:bf:1f:ed:8d:18:50:
        5b:97:13:b7:76:bf:26:fd:80:fc:fb:95:30:d7:c6:99:52:89:
        7b:33:cb:32:40:6b:3b:2a:d1:8c:ea:42:50:03:5b:df:9d:ad:
        0b:31:9e:da:18:df:12:7c
-----BEGIN CERTIFICATE-----
MIIFvjCCA6agAwIBAgICEAMwDQYJKoZIhvcNAQELBQAwaDELMAkGA1UEBhMCSU4x
DjAMBgNVBAgMBUJpaGFyMRUwEwYDVQQKDAxEZW1vU2VydmljZXMxFTATBgNVBAsM
DEludGVybWVkaWF0ZTEbMBkGA1UEAwwSRGVtb0ludGVybWVkaWF0ZUNBMB4XDTI2
MDMwNDA1NTkyMVoXDTI3MDMwNDA1NTkyMVowcTELMAkGA1UEBhMCSU4xDjAMBgNV
BAgMBUJpaGFyMQ0wCwYDVQQKDAROb25lMQ0wCwYDVQQLDAROb25lMQwwCgYDVQQD
DAN0d28xJjAkBgkqhkiG9w0BCQEWFzIwMDMudi52aXNoYWxAZ21haWwuY29tMIIB
IjANBgkqhkiG9w0BAQEFAAOCAQ8AMIIBCgKCAQEAlC8jStZy2UWtpiTMOrx37Zkg
MctVRzdEMEMwHvmhXOeUgvoiUK9BmCe+JdK22J8TV/BA/TeFqLPO2sXYoy//3Grl
S63Tk18qNsh5HZmd9l3PsHyD6GT1vS9srMRxX0Hp6+bacERgbSC5A6hc1oh9ANCp
qwN95+SnGsLRVMokC8CY8idU/hFgrCHgrUBgnvsxt2FMruc/FVQ9+VD/FuqqyXk2
1afz5gS4R0rbfev5OSEZtSt7bOlukY36P1Sxo584iXoRQ64cM/XMg5AxXoSNkSQM
07aYhnLeU+sTUo4QJUK1aAtwzr1wEbiA3Ok7WlDwJnz/4SfoI86xuQZJQBLT7QID
AQABo4IBZzCCAWMwCQYDVR0TBAIwADAdBgNVHQ4EFgQU7+0gWvFb40cjAmM7sMix
vMpDHTkwHwYDVR0jBBgwFoAUPOc2PxcmUOdZaIesDw5fdsaeRCYwCwYDVR0PBAQD
AgWgMBMGA1UdJQQMMAoGCCsGAQUFBwMCMD4GA1UdHwQ3MDUwM6AxoC+GLWh0dHA6
Ly9sb2NhbGhvc3Q6MzAwMC9zdGF0aWMvaW50ZXJtZWRpYXRlLmNybDCBswYIKgME
BQYHCAEEgaYMgaN7Ilplcm8gVHJ1c3QgR2F0ZXdheSI6IkFjY2VzcyBBdWRpdG9y
IiwiUEtJIE1hbmFnZW1lbnQiOiJDZXJ0IE9wZXJhdG9yIiwiSFNNIE9wZXJhdGlv
biI6IkNyeXB0byBPcGVyYXRvciIsIklBTSI6Ik5BIiwiU2VjdXJpdHkgQW5hbHl0
aWNzIjoiTkEiLCJDcnlwdG8gVmF1bHQiOiJOQSJ9MA0GCSqGSIb3DQEBCwUAA4IC
AQBEinbquMfGDje5AaPu2K5OQdSOFzMF7vW+h6vFBEhgkXga5MSkLNCwtdH6It/D
GZmQT4PyQRAQDmeF86fXtU7OiLTNMxhEweI8Jg+ji9QqAFNd0ZD16/t0Jd/1thB2
HtruXhTBrhym2JrJy8b/6coO7MjNyj/uS8xpugGc+SCh6Q6FsdA2/2mT0tE9xdva
4CPd6WaHjmhn9/OAwEA/Cxm7dZTaSMRqbubXMR9TWEk3QYUabaWdxmdosxUGcFYj
eX3d4PRYGOVYei5IL2+TsWcIQ9hCcRrRXWvfensdUD0SW7WpKljKjD3iaWYkXwcB
Xa9GnmPqOcsPRwfEVXZb9R3s6pmGf6ktQuhBudL4a4ePnHNNuU6lYDOypGVBQaAR
+tKTJJNStlvF80hq5CTmpouwWLfr2RPSYXl6+RD7+SZEhbdw2dax3P3G+B1PwNYK
ZkiDvqB9krmf1ZbLamq7q5+hZG2jpB6gCtDHhccm2AAIjtIAiaEflhdgfWcreN/g
I20Y7FjicwQAw0nxK35yXeTPRhdWGHaI1Tyyzv+1xgzZ4KlBIAuaMAaw11VUr4hS
//EKdjfjp4kY9DEhQAGQZVGKHwZYgc6327jY/QIyDvm/H+2NGFBblxO3dr8m/YD8
+5Uw18aZUol7M8syQGs7KtGM6kJQA1vfna0LMZ7aGN8SfA==
-----END CERTIFICATE-----
