Certificate:
    Data:
        Version: 3 (0x2)
        Serial Number: 4099 (0x1003)
        Signature Algorithm: sha256WithRSAEncryption
        Issuer: C=IN, ST=Bihar, O=DemoServices, OU=Intermediate, CN=DemoIntermediateCA
        Validity
            Not Before: Mar  6 04:55:48 2026 GMT
            Not After : Mar  6 04:55:48 2027 GMT
        Subject: C=IN, ST=kanataka, O=cdac, OU=rise, CN=user1/emailAddress=user1@gmail.com
        Subject Public Key Info:
            Public Key Algorithm: rsaEncryption
                Public-Key: (2048 bit)
                Modulus:
                    00:97:62:5d:78:1b:9c:62:78:20:89:fc:15:13:5a:
                    33:8f:df:ad:e0:44:b5:a4:2a:f3:5a:91:51:55:b0:
                    83:11:ca:8f:ca:bc:da:d7:82:c2:ba:e2:9e:f5:c2:
                    d5:de:8b:e8:cc:99:c3:3b:e0:43:39:d6:82:ba:9e:
                    f8:fc:26:66:06:f0:ae:53:fd:ca:ae:dc:b0:d6:31:
                    1b:1e:54:d7:41:0c:47:4b:14:55:de:b0:bf:84:96:
                    cd:42:fa:94:9a:b3:bc:3c:5a:20:b3:5a:0a:cd:94:
                    d7:cd:25:5f:4b:57:06:da:0b:a4:a2:34:f4:18:67:
                    75:fa:8c:19:fc:cf:06:9d:c2:3a:c7:eb:1e:88:c5:
                    cb:c0:4b:6b:3a:91:3b:a3:da:4c:5e:90:0b:ad:d3:
                    c3:8a:18:ec:81:ac:09:7b:a6:a0:fd:81:81:28:30:
                    d7:ac:b6:74:d6:af:f7:dd:af:c4:cb:d3:4b:f5:fc:
                    36:fa:aa:b3:72:72:26:2e:55:5a:4b:d2:cf:40:c9:
                    87:ce:c0:76:bf:a5:ed:2f:6d:c0:79:16:fc:58:69:
                    96:b4:60:28:38:d1:1d:37:4a:6c:19:83:b1:8d:93:
                    ec:07:03:eb:b3:4c:9e:f2:c3:ff:7f:1d:fc:eb:15:
                    01:1c:07:6b:79:27:b0:53:97:dd:f8:c8:31:e9:d1:
                    38:d5
                Exponent: 65537 (0x10001)
        X509v3 extensions:
            X509v3 Basic Constraints: 
                CA:FALSE
            X509v3 Subject Key Identifier: 
                5A:B2:F0:30:62:44:38:B3:2D:CF:49:24:45:DC:53:A6:22:49:6A:33
            X509v3 Authority Key Identifier: 
                3C:E7:36:3F:17:26:50:E7:59:68:87:AC:0F:0E:5F:76:C6:9E:44:26
            X509v3 Key Usage: 
                Digital Signature, Key Encipherment
            X509v3 Extended Key Usage: 
                TLS Web Client Authentication
            X509v3 CRL Distribution Points: 
                Full Name:
                  URI:http://localhost:3000/static/intermediate.crl

            1.2.3.4.5.6.7.8.1: 
                ...{"Zero Trust Gateway":"NA","PKI Management":"Cert Operator","HSM Operation":"Crypto Operator","IAM":"NA","Security Analytics":"NA","Crypto Vault":"NA"}
    Signature Algorithm: sha256WithRSAEncryption
    Signature Value:
        70:94:d2:f9:5d:8b:92:9b:08:ef:9a:9d:6c:ae:8f:54:93:b3:
        fc:9c:58:75:6a:b9:98:c9:d7:36:ba:d1:79:5d:b7:1e:7e:f9:
        15:1c:c1:86:a6:56:64:a8:ae:b6:a0:78:b3:5b:bc:47:f4:39:
        d6:d1:28:86:53:0c:7f:cc:85:66:85:59:4f:51:dd:de:a3:fd:
        52:ab:5d:e8:73:e6:5e:dc:b2:65:a6:6b:01:4f:52:9f:58:13:
        f9:2c:e2:2f:3e:dd:b6:c4:bb:e1:4a:9b:a3:af:48:93:1a:c6:
        f5:46:19:d8:04:6f:ec:c5:ad:29:f6:83:30:09:3d:98:97:e2:
        ae:12:7a:3c:44:dc:25:73:f1:3d:87:15:37:c1:17:c6:62:3d:
        0f:90:80:2a:28:73:ae:36:6b:22:5c:d8:8a:c2:99:5a:87:7f:
        88:b4:2d:87:54:1b:fc:c3:19:a5:48:90:5e:0f:c3:02:87:25:
        90:ad:bb:32:d2:86:e5:4b:ea:99:0c:c6:75:f5:9a:30:eb:6c:
        d5:c9:c4:fc:ab:0e:af:aa:ce:75:b3:63:b2:3b:12:4e:25:3f:
        d0:cb:45:cb:41:19:aa:c6:de:ce:02:01:04:2e:c2:8d:36:c7:
        b7:f0:db:6f:0a:4c:f7:d8:70:c2:64:59:41:97:43:8b:50:4b:
        ed:50:cc:19:82:0e:fc:eb:78:a8:d9:b8:17:30:03:64:b8:98:
        95:f5:48:3a:ad:86:dc:2c:6e:87:60:be:7d:ed:6a:b4:90:9b:
        a3:c9:0d:40:de:10:c9:48:7d:cd:b5:87:86:90:30:cf:f4:38:
        6c:3c:3a:c2:07:50:38:53:6d:21:27:ef:22:c7:37:e0:e4:ec:
        36:76:b8:df:99:2c:90:97:a0:ee:bf:05:3d:65:be:b3:4f:17:
        b6:92:c2:e6:fe:37:31:b9:89:41:30:3d:dc:3f:16:25:b9:9a:
        a9:87:ef:1a:19:af:06:04:a3:78:87:fb:4e:62:32:e2:12:e4:
        89:e1:e6:4a:0f:73:07:05:a8:8f:12:10:fe:54:5c:bc:d5:79:
        a9:f8:97:8e:8d:3b:e1:34:49:f1:17:fd:6b:34:8e:e2:f1:27:
        bd:7c:21:51:76:79:29:a9:95:25:c8:e5:a7:4e:0f:cf:be:59:
        4a:15:02:60:58:81:02:23:6c:c3:48:86:19:99:5f:75:a4:3b:
        2f:09:53:c7:57:c6:aa:e1:1b:44:e9:8d:b1:7c:dd:15:a5:84:
        d6:48:33:87:bd:5c:e1:3d:5c:68:e3:7e:08:3b:85:61:34:fc:
        f3:a5:73:a8:c4:6e:a1:94:ed:cf:f0:c2:87:cb:af:cf:25:9d:
        bb:98:d1:e8:21:b3:7e:3e
-----BEGIN CERTIFICATE-----
MIIFrzCCA5egAwIBAgICEAMwDQYJKoZIhvcNAQELBQAwaDELMAkGA1UEBhMCSU4x
DjAMBgNVBAgMBUJpaGFyMRUwEwYDVQQKDAxEZW1vU2VydmljZXMxFTATBgNVBAsM
DEludGVybWVkaWF0ZTEbMBkGA1UEAwwSRGVtb0ludGVybWVkaWF0ZUNBMB4XDTI2
MDMwNjA0NTU0OFoXDTI3MDMwNjA0NTU0OFowbjELMAkGA1UEBhMCSU4xETAPBgNV
BAgMCGthbmF0YWthMQ0wCwYDVQQKDARjZGFjMQ0wCwYDVQQLDARyaXNlMQ4wDAYD
VQQDDAV1c2VyMTEeMBwGCSqGSIb3DQEJARYPdXNlcjFAZ21haWwuY29tMIIBIjAN
BgkqhkiG9w0BAQEFAAOCAQ8AMIIBCgKCAQEAl2JdeBucYnggifwVE1ozj9+t4ES1
pCrzWpFRVbCDEcqPyrza14LCuuKe9cLV3ovozJnDO+BDOdaCup74/CZmBvCuU/3K
rtyw1jEbHlTXQQxHSxRV3rC/hJbNQvqUmrO8PFogs1oKzZTXzSVfS1cG2gukojT0
GGd1+owZ/M8GncI6x+seiMXLwEtrOpE7o9pMXpALrdPDihjsgawJe6ag/YGBKDDX
rLZ01q/33a/Ey9NL9fw2+qqzcnImLlVaS9LPQMmHzsB2v6XtL23AeRb8WGmWtGAo
ONEdN0psGYOxjZPsBwPrs0ye8sP/fx386xUBHAdreSewU5fd+Mgx6dE41QIDAQAB
o4IBWzCCAVcwCQYDVR0TBAIwADAdBgNVHQ4EFgQUWrLwMGJEOLMtz0kkRdxTpiJJ
ajMwHwYDVR0jBBgwFoAUPOc2PxcmUOdZaIesDw5fdsaeRCYwCwYDVR0PBAQDAgWg
MBMGA1UdJQQMMAoGCCsGAQUFBwMCMD4GA1UdHwQ3MDUwM6AxoC+GLWh0dHA6Ly9s
b2NhbGhvc3Q6MzAwMC9zdGF0aWMvaW50ZXJtZWRpYXRlLmNybDCBpwYIKgMEBQYH
CAEEgZoMgZd7Ilplcm8gVHJ1c3QgR2F0ZXdheSI6Ik5BIiwiUEtJIE1hbmFnZW1l
bnQiOiJDZXJ0IE9wZXJhdG9yIiwiSFNNIE9wZXJhdGlvbiI6IkNyeXB0byBPcGVy
YXRvciIsIklBTSI6Ik5BIiwiU2VjdXJpdHkgQW5hbHl0aWNzIjoiTkEiLCJDcnlw
dG8gVmF1bHQiOiJOQSJ9MA0GCSqGSIb3DQEBCwUAA4ICAQBwlNL5XYuSmwjvmp1s
ro9Uk7P8nFh1armYydc2utF5XbcefvkVHMGGplZkqK62oHizW7xH9DnW0SiGUwx/
zIVmhVlPUd3eo/1Sq13oc+Ze3LJlpmsBT1KfWBP5LOIvPt22xLvhSpujr0iTGsb1
RhnYBG/sxa0p9oMwCT2Yl+KuEno8RNwlc/E9hxU3wRfGYj0PkIAqKHOuNmsiXNiK
wplah3+ItC2HVBv8wxmlSJBeD8MChyWQrbsy0oblS+qZDMZ19Zow62zVycT8qw6v
qs51s2OyOxJOJT/Qy0XLQRmqxt7OAgEELsKNNse38NtvCkz32HDCZFlBl0OLUEvt
UMwZgg7863io2bgXMANkuJiV9Ug6rYbcLG6HYL597Wq0kJujyQ1A3hDJSH3NtYeG
kDDP9DhsPDrCB1A4U20hJ+8ixzfg5Ow2drjfmSyQl6DuvwU9Zb6zTxe2ksLm/jcx
uYlBMD3cPxYluZqph+8aGa8GBKN4h/tOYjLiEuSJ4eZKD3MHBaiPEhD+VFy81Xmp
+JeOjTvhNEnxF/1rNI7i8Se9fCFRdnkpqZUlyOWnTg/PvllKFQJgWIECI2zDSIYZ
mV91pDsvCVPHV8aq4RtE6Y2xfN0VpYTWSDOHvVzhPVxo434IO4VhNPzzpXOoxG6h
lO3P8MKHy6/PJZ27mNHoIbN+Pg==
-----END CERTIFICATE-----
