Certificate:
    Data:
        Version: 3 (0x2)
        Serial Number: 4097 (0x1001)
        Signature Algorithm: sha256WithRSAEncryption
        Issuer: C=IN, ST=Bihar, O=DemoServices, OU=Intermediate, CN=DemoIntermediateCA
        Validity
            Not Before: Mar  3 06:07:28 2026 GMT
            Not After : Mar  3 06:07:28 2027 GMT
        Subject: C=IN, ST=Karnataka, O=cdac, OU=rise, CN=vishal/emailAddress=vishal@gmail.com
        Subject Public Key Info:
            Public Key Algorithm: rsaEncryption
                Public-Key: (2048 bit)
                Modulus:
                    00:94:7c:62:d9:d6:70:c7:54:58:87:2a:ee:a2:e1:
                    96:48:0c:99:50:ff:cb:65:44:e8:f9:14:ce:09:50:
                    73:65:fb:7a:f7:df:7e:d4:fb:7a:b6:fb:f0:50:33:
                    d6:91:d8:b3:15:50:35:79:32:8f:c8:c6:0f:b9:94:
                    6b:ee:72:1f:71:b6:84:1c:b3:e0:e3:de:41:40:b0:
                    ee:a6:aa:4c:c4:8c:31:f0:bd:c6:5f:a4:58:6a:92:
                    f4:54:a8:b9:e6:e0:dc:d7:1c:dc:4d:dc:4a:a7:8a:
                    e3:4d:7d:9b:4b:d5:f3:37:41:62:e0:c5:7e:3a:ce:
                    14:cb:5c:08:77:74:83:9d:68:d1:1b:1b:4b:76:73:
                    3d:49:c9:4a:f2:74:b9:8f:0d:60:4a:5e:be:85:a5:
                    11:e7:8d:47:6e:81:32:02:53:99:c0:eb:b4:28:6c:
                    49:b0:25:94:9f:2b:ce:d8:47:f6:14:11:32:b4:fc:
                    7d:44:fd:2c:b2:b2:4e:70:c6:d2:f3:86:6f:db:cd:
                    12:61:ec:ab:20:e3:9b:d1:f8:8b:dc:35:2c:32:41:
                    c8:7d:31:fc:a7:c0:47:3b:56:f4:b3:fd:76:a8:84:
                    35:e0:f5:a5:87:c8:aa:90:b8:cb:d9:d6:47:3e:22:
                    5b:6d:06:52:8b:7b:2e:d8:4d:a9:bb:b5:3b:c2:31:
                    20:3d
                Exponent: 65537 (0x10001)
        X509v3 extensions:
            X509v3 Basic Constraints: 
                CA:FALSE
            X509v3 Subject Key Identifier: 
                12:F9:A5:A0:DC:14:04:67:79:6E:84:83:49:EE:70:43:0D:0A:4D:2E
            X509v3 Authority Key Identifier: 
                3C:E7:36:3F:17:26:50:E7:59:68:87:AC:0F:0E:5F:76:C6:9E:44:26
            X509v3 Key Usage: 
                Digital Signature, Key Encipherment
            X509v3 Extended Key Usage: 
                TLS Web Client Authentication
            X509v3 CRL Distribution Points: 
                Full Name:
                  URI:http://localhost:3000/static/intermediate.crl

            1.2.3.4.5.6.7.8.1: 
                ...{"Zero Trust Gateway":"Gateway Admin","PKI Management":"Cert Operator","HSM Operation":"NA","IAM":"NA","Security Analytics":"NA","Crypto Vault":"NA"}
    Signature Algorithm: sha256WithRSAEncryption
    Signature Value:
        19:63:e3:6e:71:40:e0:f3:44:61:09:7f:05:9c:ba:6f:04:0d:
        76:dc:e9:dc:2a:2d:ee:dd:3f:6c:15:8d:4b:41:61:37:71:5b:
        73:6a:63:88:15:f4:a9:d2:8c:0c:64:1e:6b:35:a7:a0:8f:7f:
        bb:63:8e:cc:ad:68:da:5d:36:ee:2b:0a:64:51:7b:f6:8b:3c:
        71:e9:8e:72:d9:35:9b:f9:ce:f7:59:e2:53:ad:12:66:dd:ce:
        fa:1c:64:52:b3:eb:e5:d4:b6:10:ae:26:6b:34:04:66:20:4f:
        8f:f7:5a:05:6a:86:c4:ff:f0:55:13:76:f0:88:ae:17:44:3f:
        a1:c6:ee:d4:69:f1:ee:15:35:74:53:e5:43:23:70:c1:98:27:
        c6:c7:14:4b:e9:cf:82:a7:3a:c2:e8:e6:d8:27:02:40:ca:9b:
        67:5e:90:18:24:ad:68:25:eb:53:92:fa:45:17:75:01:f2:7e:
        00:5e:03:95:69:b6:26:ef:7b:fd:97:14:e7:9e:92:97:1b:2d:
        c9:30:bb:10:c8:b0:98:89:67:66:61:d3:84:34:33:df:d7:d5:
        18:31:d7:76:27:29:49:2c:25:64:22:bf:51:df:cf:cd:af:6c:
        3b:95:9f:ba:db:0a:87:e7:d7:14:a6:11:60:30:8e:71:ab:e5:
        5b:64:19:9c:e8:e2:66:37:30:30:7d:37:dc:9e:af:0b:a3:2c:
        49:96:20:b3:de:6e:bd:9a:7d:01:75:4a:03:b2:7f:12:24:84:
        30:28:26:56:34:f6:34:1d:34:9c:9d:18:da:bf:5d:53:a4:3f:
        b7:19:70:10:70:c0:11:3a:c2:da:23:78:61:d3:c2:d3:75:ea:
        ff:5b:52:17:3b:bd:b2:2c:d0:8d:b7:f9:68:56:c7:57:6e:63:
        1b:b9:70:b9:5c:15:f2:08:dd:43:9d:3e:b2:45:43:ec:c0:12:
        98:dc:09:de:ea:23:fa:85:90:70:55:93:30:d1:c4:fc:31:6c:
        d3:5c:e3:15:6f:59:5a:34:fe:8c:fa:20:20:89:2b:0f:cb:61:
        37:a1:af:d1:77:d7:bd:2a:9b:c0:79:d1:cf:68:65:79:f5:11:
        83:d8:1c:fb:35:c7:c0:8a:e0:66:2c:45:f1:c0:ed:cf:c2:c7:
        8c:c3:f9:29:97:02:68:cc:30:81:f7:10:b6:53:76:f0:90:f3:
        b4:c1:f0:c1:11:f7:ff:9b:d9:e1:45:88:0b:c6:6b:e7:c9:22:
        f4:d1:da:9c:dd:6b:c3:50:34:43:2e:ac:d4:48:71:ed:f2:08:
        40:40:aa:3e:49:97:fb:76:d0:8b:09:ee:a8:c7:09:56:38:ab:
        04:2e:b0:57:9e:ce:63:e5
-----BEGIN CERTIFICATE-----
MIIFsDCCA5igAwIBAgICEAEwDQYJKoZIhvcNAQELBQAwaDELMAkGA1UEBhMCSU4x
DjAMBgNVBAgMBUJpaGFyMRUwEwYDVQQKDAxEZW1vU2VydmljZXMxFTATBgNVBAsM
DEludGVybWVkaWF0ZTEbMBkGA1UEAwwSRGVtb0ludGVybWVkaWF0ZUNBMB4XDTI2
MDMwMzA2MDcyOFoXDTI3MDMwMzA2MDcyOFowcTELMAkGA1UEBhMCSU4xEjAQBgNV
BAgMCUthcm5hdGFrYTENMAsGA1UECgwEY2RhYzENMAsGA1UECwwEcmlzZTEPMA0G
A1UEAwwGdmlzaGFsMR8wHQYJKoZIhvcNAQkBFhB2aXNoYWxAZ21haWwuY29tMIIB
IjANBgkqhkiG9w0BAQEFAAOCAQ8AMIIBCgKCAQEAlHxi2dZwx1RYhyruouGWSAyZ
UP/LZUTo+RTOCVBzZft6999+1Pt6tvvwUDPWkdizFVA1eTKPyMYPuZRr7nIfcbaE
HLPg495BQLDupqpMxIwx8L3GX6RYapL0VKi55uDc1xzcTdxKp4rjTX2bS9XzN0Fi
4MV+Os4Uy1wId3SDnWjRGxtLdnM9SclK8nS5jw1gSl6+haUR541HboEyAlOZwOu0
KGxJsCWUnyvO2Ef2FBEytPx9RP0ssrJOcMbS84Zv280SYeyrIOOb0fiL3DUsMkHI
fTH8p8BHO1b0s/12qIQ14PWlh8iqkLjL2dZHPiJbbQZSi3su2E2pu7U7wjEgPQID
AQABo4IBWTCCAVUwCQYDVR0TBAIwADAdBgNVHQ4EFgQUEvmloNwUBGd5boSDSe5w
Qw0KTS4wHwYDVR0jBBgwFoAUPOc2PxcmUOdZaIesDw5fdsaeRCYwCwYDVR0PBAQD
AgWgMBMGA1UdJQQMMAoGCCsGAQUFBwMCMD4GA1UdHwQ3MDUwM6AxoC+GLWh0dHA6
Ly9sb2NhbGhvc3Q6MzAwMC9zdGF0aWMvaW50ZXJtZWRpYXRlLmNybDCBpQYIKgME
BQYHCAEEgZgMgZV7Ilplcm8gVHJ1c3QgR2F0ZXdheSI6IkdhdGV3YXkgQWRtaW4i
LCJQS0kgTWFuYWdlbWVudCI6IkNlcnQgT3BlcmF0b3IiLCJIU00gT3BlcmF0aW9u
IjoiTkEiLCJJQU0iOiJOQSIsIlNlY3VyaXR5IEFuYWx5dGljcyI6Ik5BIiwiQ3J5
cHRvIFZhdWx0IjoiTkEifTANBgkqhkiG9w0BAQsFAAOCAgEAGWPjbnFA4PNEYQl/
BZy6bwQNdtzp3Cot7t0/bBWNS0FhN3Fbc2pjiBX0qdKMDGQeazWnoI9/u2OOzK1o
2l027isKZFF79os8cemOctk1m/nO91niU60SZt3O+hxkUrPr5dS2EK4mazQEZiBP
j/daBWqGxP/wVRN28IiuF0Q/ocbu1Gnx7hU1dFPlQyNwwZgnxscUS+nPgqc6wujm
2CcCQMqbZ16QGCStaCXrU5L6RRd1AfJ+AF4DlWm2Ju97/ZcU556SlxstyTC7EMiw
mIlnZmHThDQz39fVGDHXdicpSSwlZCK/Ud/Pza9sO5WfutsKh+fXFKYRYDCOcavl
W2QZnOjiZjcwMH033J6vC6MsSZYgs95uvZp9AXVKA7J/EiSEMCgmVjT2NB00nJ0Y
2r9dU6Q/txlwEHDAETrC2iN4YdPC03Xq/1tSFzu9sizQjbf5aFbHV25jG7lwuVwV
8gjdQ50+skVD7MASmNwJ3uoj+oWQcFWTMNHE/DFs01zjFW9ZWjT+jPogIIkrD8th
N6Gv0XfXvSqbwHnRz2hlefURg9gc+zXHwIrgZixF8cDtz8LHjMP5KZcCaMwwgfcQ
tlN28JDztMHwwRH3/5vZ4UWIC8Zr58ki9NHanN1rw1A0Qy6s1Ehx7fIIQECqPkmX
+3bQiwnuqMcJVjirBC6wV57OY+U=
-----END CERTIFICATE-----
