Certificate:
    Data:
        Version: 3 (0x2)
        Serial Number: 4097 (0x1001)
        Signature Algorithm: sha256WithRSAEncryption
        Issuer: C=IN, ST=Bihar, O=DemoServices, CN=DemoRootCA
        Validity
            Not Before: Nov 19 06:10:11 2025 GMT
            Not After : Nov 19 06:10:11 2026 GMT
        Subject: C=IN, O=MyOrg, CN={USERNAME}
        Subject Public Key Info:
            Public Key Algorithm: rsaEncryption
                Public-Key: (2048 bit)
                Modulus:
                    00:8a:fe:a4:3a:62:e9:8b:2f:0f:17:40:3c:4d:c8:
                    af:31:91:94:66:4d:df:6e:4f:36:b8:7a:e2:e8:e2:
                    ff:4e:52:3f:5e:0d:38:4c:1e:f6:69:2b:c1:23:d8:
                    8f:0b:b8:e5:13:f4:c0:62:73:8a:a2:6d:53:58:a1:
                    64:ef:c5:00:4b:7d:42:70:db:07:10:b4:ed:7e:21:
                    18:d5:af:44:fa:a8:18:89:0d:dd:05:a4:c3:2b:f6:
                    e6:46:0b:4d:f8:55:16:49:23:6f:22:ae:ff:2e:d4:
                    ae:56:64:60:85:b7:04:f1:78:6b:09:89:3c:18:4d:
                    a3:11:e6:1f:bc:4f:c2:c1:9d:9a:19:f2:a9:0b:0c:
                    b4:6d:56:3f:7f:f5:e3:60:dd:5d:5b:fd:52:30:f2:
                    00:b2:36:97:80:36:13:04:ff:37:90:cd:fc:84:c9:
                    ef:5c:9b:7a:4b:46:0e:2d:cc:c3:85:03:93:78:84:
                    e4:20:ba:bf:83:1b:b4:1f:85:7f:d3:79:19:e2:7f:
                    51:8a:d8:c0:54:f6:a2:66:60:4b:d0:21:77:b4:ae:
                    9d:8d:27:53:05:e3:8e:09:cd:32:07:40:35:bd:0c:
                    2f:e0:2a:91:7a:1e:a2:76:53:9a:c2:31:8e:db:36:
                    f9:d8:51:e7:f6:df:90:f3:ee:37:2b:39:27:44:97:
                    1a:89
                Exponent: 65537 (0x10001)
        X509v3 extensions:
            X509v3 Basic Constraints: 
                CA:FALSE
            Netscape Cert Type: 
                SSL Client, S/MIME
            Netscape Comment: 
                Client Certificate
            X509v3 Subject Key Identifier: 
                42:0E:D4:D4:B3:59:E1:E9:83:D6:2A:D3:24:93:D1:82:9A:4D:A4:17
            X509v3 Authority Key Identifier: 
                C6:9A:17:6A:6F:CC:27:84:D8:16:A0:B0:49:47:DA:48:9E:52:0A:66
            X509v3 Key Usage: 
                Digital Signature, Key Encipherment
            X509v3 Extended Key Usage: 
                TLS Web Client Authentication
            1.2.3.4.5.6.7.8.1: 
                F.^
            S/MIME Capabilities: 
                050...*.H........0...*.H........0...+....0
..*.H....
    Signature Algorithm: sha256WithRSAEncryption
    Signature Value:
        2f:99:96:6f:af:40:94:0b:4a:35:d9:2d:33:d5:ce:5d:86:96:
        53:0c:03:e4:e7:68:53:89:bf:6f:67:f0:ba:60:2c:82:76:33:
        00:b2:94:54:0e:e8:8a:bf:97:9e:d3:1d:37:68:0d:8d:3e:11:
        dc:03:9d:40:64:b2:52:c3:b0:cd:fd:2d:d7:15:43:08:29:7d:
        99:d9:73:15:d4:ff:c7:00:b0:9d:27:73:2d:ad:5f:81:e9:6d:
        0e:d4:22:58:55:e4:a8:a4:9c:d2:f2:5c:3f:dd:72:b9:0c:b6:
        4b:f0:cd:36:46:7d:ed:b0:d9:36:20:7b:95:10:38:e5:6d:76:
        10:f2:6e:46:4c:78:fe:2b:81:43:cc:4d:9c:05:73:4f:35:20:
        43:fe:06:a3:7e:dc:9b:25:94:d8:68:f2:1d:28:96:f4:79:1f:
        16:95:a3:19:c1:ae:b5:c6:f9:88:7e:5d:7b:10:1e:b3:b0:a1:
        7b:46:4e:ca:7c:67:09:48:7e:57:74:4f:5f:22:b4:68:c7:7c:
        b0:b7:da:84:20:4c:85:2b:c9:25:bd:10:ae:bb:17:0f:c4:b6:
        72:ac:65:eb:56:12:0e:4e:7d:d1:70:63:d1:33:6d:a3:07:97:
        f8:2a:eb:c5:7c:47:03:35:8b:bf:81:9b:bc:ae:f6:9e:37:48:
        ff:c9:33:cf:8f:6f:52:8b:bb:b7:bc:05:b8:b6:5f:59:71:1a:
        06:ec:d7:db:d6:91:d5:3d:98:ff:53:98:3d:5d:de:24:72:22:
        b1:fb:b2:7c:90:4a:d4:21:06:1c:bb:5d:2c:d6:5a:33:31:85:
        a0:7c:2c:43:11:7d:17:83:5c:d4:6b:07:35:96:4d:10:f6:3c:
        3f:6f:28:2e:aa:dd:d4:bd:78:74:39:6d:e6:8b:4a:34:7f:b7:
        f6:6c:df:8f:2d:23:b7:d0:c5:18:6a:77:f8:43:eb:cf:42:6b:
        16:32:37:34:be:d9:b3:23:7a:9b:fe:76:6b:3f:f5:0e:85:8f:
        0a:c4:66:82:bb:d2:de:b6:20:b7:61:a9:db:b6:41:34:a1:da:
        f3:fe:e7:80:5f:4b:fe:56:10:4b:5d:9c:7b:94:ce:9b:c0:5a:
        29:9d:12:cd:68:81:d1:07:09:36:24:9d:ea:4b:6a:de:ca:c5:
        da:a6:d5:09:0b:b7:29:b0:9d:de:d3:df:5b:ba:9b:39:a8:c2:
        88:44:50:09:3e:3b:c2:63:7d:93:01:90:35:23:b1:3b:cd:d2:
        d8:d3:6c:5a:aa:00:2f:3a:f6:9e:c5:cf:33:c6:6a:ee:40:5f:
        ac:c1:1a:e4:e2:6d:0c:24:8f:da:d8:74:a0:0a:45:b5:57:43:
        89:ee:02:1f:5a:f0:6e:da
-----BEGIN CERTIFICATE-----
MIIE9TCCAt2gAwIBAgICEAEwDQYJKoZIhvcNAQELBQAwSTELMAkGA1UEBhMCSU4x
DjAMBgNVBAgMBUJpaGFyMRUwEwYDVQQKDAxEZW1vU2VydmljZXMxEzARBgNVBAMM
CkRlbW9Sb290Q0EwHhcNMjUxMTE5MDYxMDExWhcNMjYxMTE5MDYxMDExWjAyMQsw
CQYDVQQGEwJJTjEOMAwGA1UECgwFTXlPcmcxEzARBgNVBAMMCntVU0VSTkFNRX0w
ggEiMA0GCSqGSIb3DQEBAQUAA4IBDwAwggEKAoIBAQCK/qQ6YumLLw8XQDxNyK8x
kZRmTd9uTza4euLo4v9OUj9eDThMHvZpK8Ej2I8LuOUT9MBic4qibVNYoWTvxQBL
fUJw2wcQtO1+IRjVr0T6qBiJDd0FpMMr9uZGC034VRZJI28irv8u1K5WZGCFtwTx
eGsJiTwYTaMR5h+8T8LBnZoZ8qkLDLRtVj9/9eNg3V1b/VIw8gCyNpeANhME/zeQ
zfyEye9cm3pLRg4tzMOFA5N4hOQgur+DG7QfhX/TeRnif1GK2MBU9qJmYEvQIXe0
rp2NJ1MF444JzTIHQDW9DC/gKpF6HqJ2U5rCMY7bNvnYUef235Dz7jcrOSdElxqJ
AgMBAAGjgf0wgfowCQYDVR0TBAIwADARBglghkgBhvhCAQEEBAMCBaAwIQYJYIZI
AYb4QgENBBQWEkNsaWVudCBDZXJ0aWZpY2F0ZTAdBgNVHQ4EFgQUQg7U1LNZ4emD
1irTJJPRgppNpBcwHwYDVR0jBBgwFoAUxpoXam/MJ4TYFqCwSUfaSJ5SCmYwCwYD
VR0PBAQDAgWgMBMGA1UdJQQMMAoGCCsGAQUFBwMCMA8GCCoDBAUGBwgBBANGiV4w
RAYJKoZIhvcNAQkPBDcwNTAOBggqhkiG9w0DAgICAIAwDgYIKoZIhvcNAwQCAgCA
MAcGBSsOAwIHMAoGCCqGSIb3DQMHMA0GCSqGSIb3DQEBCwUAA4ICAQAvmZZvr0CU
C0o12S0z1c5dhpZTDAPk52hTib9vZ/C6YCyCdjMAspRUDuiKv5ee0x03aA2NPhHc
A51AZLJSw7DN/S3XFUMIKX2Z2XMV1P/HALCdJ3MtrV+B6W0O1CJYVeSopJzS8lw/
3XK5DLZL8M02Rn3tsNk2IHuVEDjlbXYQ8m5GTHj+K4FDzE2cBXNPNSBD/gajftyb
JZTYaPIdKJb0eR8WlaMZwa61xvmIfl17EB6zsKF7Rk7KfGcJSH5XdE9fIrRox3yw
t9qEIEyFK8klvRCuuxcPxLZyrGXrVhIOTn3RcGPRM22jB5f4KuvFfEcDNYu/gZu8
rvaeN0j/yTPPj29Si7u3vAW4tl9ZcRoG7Nfb1pHVPZj/U5g9Xd4kciKx+7J8kErU
IQYcu10s1lozMYWgfCxDEX0Xg1zUawc1lk0Q9jw/byguqt3UvXh0OW3mi0o0f7f2
bN+PLSO30MUYanf4Q+vPQmsWMjc0vtmzI3qb/nZrP/UOhY8KxGaCu9LetiC3Yanb
tkE0odrz/ueAX0v+VhBLXZx7lM6bwFopnRLNaIHRBwk2JJ3qS2reysXaptUJC7cp
sJ3e099bups5qMKIRFAJPjvCY32TAZA1I7E7zdLY02xaqgAvOvaexc8zxmruQF+s
wRrk4m0MJI/a2HSgCkW1V0OJ7gIfWvBu2g==
-----END CERTIFICATE-----
