Certificate:
    Data:
        Version: 3 (0x2)
        Serial Number: 4098 (0x1002)
        Signature Algorithm: sha256WithRSAEncryption
        Issuer: C=IN, ST=Bihar, O=DemoServices, CN=DemoRootCA
        Validity
            Not Before: Nov 19 06:40:20 2025 GMT
            Not After : Nov 19 06:40:20 2026 GMT
        Subject: C=IN, O=MyOrg, CN={vishal}
        Subject Public Key Info:
            Public Key Algorithm: rsaEncryption
                Public-Key: (2048 bit)
                Modulus:
                    00:98:6d:b9:21:5d:21:08:5b:39:10:4b:9a:6a:ca:
                    ce:fe:19:71:33:84:97:7d:54:18:9a:12:24:34:e6:
                    1a:c5:23:ac:8c:2d:6e:b5:de:5e:13:cb:8d:8b:83:
                    d4:3c:69:1c:dc:82:61:aa:d1:1b:27:f2:3b:dd:43:
                    64:f2:f3:c3:1e:42:2f:9c:be:0a:07:3d:be:14:b6:
                    32:16:8b:34:b8:33:40:1b:0d:4a:76:84:68:94:bb:
                    54:86:fc:e4:d6:8b:b3:a8:a6:18:e7:e0:c4:b2:42:
                    4b:66:30:10:48:1f:0a:d8:9c:28:d0:ce:7f:1d:9d:
                    6e:12:58:05:8f:92:54:2a:b8:e3:c4:1e:bc:b7:b1:
                    80:0d:fe:16:11:f7:78:85:5a:24:eb:68:83:a2:be:
                    25:d2:e0:5c:4f:32:f5:35:2b:08:14:40:87:c5:d9:
                    a3:1c:0f:c2:bc:d7:37:65:e2:4c:73:4f:70:e4:b4:
                    33:8f:74:87:d6:81:f8:0f:68:2d:f3:8b:34:4e:f6:
                    43:85:87:40:e6:c1:1e:66:51:0c:91:89:58:30:65:
                    93:b8:32:8c:29:b2:8c:2e:06:a2:ce:32:c4:56:a6:
                    99:7e:ea:33:46:f8:47:bf:d2:ac:88:92:db:f3:cc:
                    e6:ca:d8:8d:4e:a7:80:a3:89:9d:c1:73:3d:9d:98:
                    3e:bd
                Exponent: 65537 (0x10001)
        X509v3 extensions:
            X509v3 Basic Constraints: 
                CA:FALSE
            Netscape Cert Type: 
                SSL Client, S/MIME
            Netscape Comment: 
                Client Certificate
            X509v3 Subject Key Identifier: 
                7C:1E:E0:3E:79:2B:D4:A3:BD:95:A1:C8:0D:EE:F7:60:55:70:F6:9E
            X509v3 Authority Key Identifier: 
                C6:9A:17:6A:6F:CC:27:84:D8:16:A0:B0:49:47:DA:48:9E:52:0A:66
            X509v3 Key Usage: 
                Digital Signature, Key Encipherment
            X509v3 Extended Key Usage: 
                TLS Web Client Authentication
            1.2.3.4.5.6.7.8.1: 
                F.^
            S/MIME Capabilities: 
                050...*.H........0...*.H........0...+....0
..*.H....
    Signature Algorithm: sha256WithRSAEncryption
    Signature Value:
        53:fc:d4:4a:82:b8:37:1c:ec:f6:c4:c8:c0:92:f8:84:61:2b:
        63:02:3e:0e:18:ea:14:6a:3c:59:5f:ee:1a:5d:4b:47:89:a3:
        bd:1b:73:16:4e:9f:89:d3:87:c6:6e:07:dd:de:e4:d1:e1:f8:
        f0:6f:55:15:08:45:6a:8d:8d:46:4b:fc:b2:24:ab:15:58:cd:
        6a:23:be:a8:69:70:40:bd:79:89:ad:9c:b3:4b:fc:d4:0a:55:
        bf:26:54:6d:77:92:5b:60:ca:32:7c:e8:9b:bf:8b:d6:1b:f3:
        d2:40:7f:fe:01:eb:5b:3f:de:20:3b:6d:a0:7c:d5:84:53:29:
        a8:dd:f3:8c:0a:58:85:8b:8d:00:6c:5e:6a:7b:56:1b:5d:ca:
        d9:12:82:c7:83:89:14:38:8d:28:5e:f4:29:ae:e2:20:61:94:
        2e:7a:83:5b:34:32:ab:01:a1:43:7f:aa:2e:8d:86:25:c8:4c:
        3b:7b:0f:0c:6b:9c:45:36:38:fa:30:0b:a7:d9:e4:ee:93:54:
        3b:0e:79:ba:74:93:1f:d6:06:29:5f:90:96:41:6a:f5:e2:84:
        33:13:a9:c2:0d:af:69:3c:51:14:fc:0e:ec:a6:14:8e:ce:09:
        fb:04:45:cc:0b:a1:1d:cb:d9:eb:c7:c0:e8:fc:be:e1:26:48:
        d5:b3:d7:d7:e6:a1:ae:48:69:54:4f:c4:74:6b:ec:6b:dd:5e:
        b2:ed:e1:5f:85:42:b0:85:35:c0:f9:86:ab:28:89:36:0e:27:
        90:92:76:41:7a:3b:79:67:f8:9c:55:cb:68:75:44:47:e1:80:
        8d:1b:99:b8:0d:aa:27:c6:bf:1d:e2:f7:8b:cf:b9:e3:e4:53:
        88:46:3c:12:27:ef:c1:b2:66:30:37:54:3e:ac:ef:61:18:8a:
        5f:f0:2b:19:d4:8d:23:89:b7:6e:5a:0c:6c:2e:c1:0b:18:ca:
        63:99:00:5a:ab:d3:75:ab:da:59:fb:74:3b:2a:73:31:cf:b3:
        6d:ff:38:d0:d1:4f:ae:80:f6:2a:a3:25:56:fa:3c:f6:71:54:
        f1:93:b8:94:a2:f4:36:15:21:9c:12:4e:57:d4:18:d2:c7:1b:
        d4:f8:d2:6d:b5:28:0d:f9:25:4f:5f:ed:0f:f9:82:06:b2:fe:
        2f:56:d2:66:22:8a:02:c9:44:a7:1a:61:6a:40:60:4c:c3:ba:
        4f:41:f8:ee:06:30:74:d8:4f:d0:6e:88:95:6b:c6:f9:de:2b:
        3f:e9:64:08:77:cc:48:39:46:d0:17:96:12:26:d7:10:e9:2f:
        45:8c:5d:3f:b1:d4:c6:44:91:57:2e:57:55:84:fd:c7:df:f4:
        b7:7c:a5:37:bd:d8:fa:8a
-----BEGIN CERTIFICATE-----
MIIE8zCCAtugAwIBAgICEAIwDQYJKoZIhvcNAQELBQAwSTELMAkGA1UEBhMCSU4x
DjAMBgNVBAgMBUJpaGFyMRUwEwYDVQQKDAxEZW1vU2VydmljZXMxEzARBgNVBAMM
CkRlbW9Sb290Q0EwHhcNMjUxMTE5MDY0MDIwWhcNMjYxMTE5MDY0MDIwWjAwMQsw
CQYDVQQGEwJJTjEOMAwGA1UECgwFTXlPcmcxETAPBgNVBAMMCHt2aXNoYWx9MIIB
IjANBgkqhkiG9w0BAQEFAAOCAQ8AMIIBCgKCAQEAmG25IV0hCFs5EEuaasrO/hlx
M4SXfVQYmhIkNOYaxSOsjC1utd5eE8uNi4PUPGkc3IJhqtEbJ/I73UNk8vPDHkIv
nL4KBz2+FLYyFos0uDNAGw1KdoRolLtUhvzk1ouzqKYY5+DEskJLZjAQSB8K2Jwo
0M5/HZ1uElgFj5JUKrjjxB68t7GADf4WEfd4hVok62iDor4l0uBcTzL1NSsIFECH
xdmjHA/CvNc3ZeJMc09w5LQzj3SH1oH4D2gt84s0TvZDhYdA5sEeZlEMkYlYMGWT
uDKMKbKMLgaizjLEVqaZfuozRvhHv9KsiJLb88zmytiNTqeAo4mdwXM9nZg+vQID
AQABo4H9MIH6MAkGA1UdEwQCMAAwEQYJYIZIAYb4QgEBBAQDAgWgMCEGCWCGSAGG
+EIBDQQUFhJDbGllbnQgQ2VydGlmaWNhdGUwHQYDVR0OBBYEFHwe4D55K9SjvZWh
yA3u92BVcPaeMB8GA1UdIwQYMBaAFMaaF2pvzCeE2BagsElH2kieUgpmMAsGA1Ud
DwQEAwIFoDATBgNVHSUEDDAKBggrBgEFBQcDAjAPBggqAwQFBgcIAQQDRoleMEQG
CSqGSIb3DQEJDwQ3MDUwDgYIKoZIhvcNAwICAgCAMA4GCCqGSIb3DQMEAgIAgDAH
BgUrDgMCBzAKBggqhkiG9w0DBzANBgkqhkiG9w0BAQsFAAOCAgEAU/zUSoK4Nxzs
9sTIwJL4hGErYwI+DhjqFGo8WV/uGl1LR4mjvRtzFk6fidOHxm4H3d7k0eH48G9V
FQhFao2NRkv8siSrFVjNaiO+qGlwQL15ia2cs0v81ApVvyZUbXeSW2DKMnzom7+L
1hvz0kB//gHrWz/eIDttoHzVhFMpqN3zjApYhYuNAGxeantWG13K2RKCx4OJFDiN
KF70Ka7iIGGULnqDWzQyqwGhQ3+qLo2GJchMO3sPDGucRTY4+jALp9nk7pNUOw55
unSTH9YGKV+QlkFq9eKEMxOpwg2vaTxRFPwO7KYUjs4J+wRFzAuhHcvZ68fA6Py+
4SZI1bPX1+ahrkhpVE/EdGvsa91esu3hX4VCsIU1wPmGqyiJNg4nkJJ2QXo7eWf4
nFXLaHVER+GAjRuZuA2qJ8a/HeL3i8+54+RTiEY8EifvwbJmMDdUPqzvYRiKX/Ar
GdSNI4m3bloMbC7BCxjKY5kAWqvTdavaWft0OypzMc+zbf840NFProD2KqMlVvo8
9nFU8ZO4lKL0NhUhnBJOV9QY0scb1PjSbbUoDfklT1/tD/mCBrL+L1bSZiKKAslE
pxphakBgTMO6T0H47gYwdNhP0G6IlWvG+d4rP+lkCHfMSDlG0BeWEibXEOkvRYxd
P7HUxkSRVy5XVYT9x9/0t3ylN73Y+oo=
-----END CERTIFICATE-----
