Certificate:
    Data:
        Version: 3 (0x2)
        Serial Number: 4099 (0x1003)
        Signature Algorithm: sha256WithRSAEncryption
        Issuer: C=IN, ST=Bihar, O=DemoServices, CN=DemoRootCA
        Validity
            Not Before: Nov 20 09:03:55 2025 GMT
            Not After : Nov 20 09:03:55 2026 GMT
        Subject: C=IN, O=MyOrg, CN=rahul
        Subject Public Key Info:
            Public Key Algorithm: rsaEncryption
                Public-Key: (2048 bit)
                Modulus:
                    00:8c:6f:aa:80:6f:53:42:ba:42:e6:71:09:dc:4a:
                    2a:c1:76:aa:ab:ff:41:3a:3a:7d:0d:73:91:c7:16:
                    ab:bc:12:21:36:d1:93:03:24:e5:97:f4:0c:33:6c:
                    32:b9:dd:6f:55:d4:4b:f2:81:1d:2e:40:ad:7e:26:
                    fd:40:eb:17:ca:fc:e6:6f:5c:0b:b0:79:dd:95:2a:
                    ea:10:04:6a:64:d0:cc:a5:ce:dd:27:d6:d8:da:7d:
                    dd:a1:8d:64:ae:84:e3:cd:48:a7:08:14:e8:90:39:
                    0c:ed:9a:81:ed:e7:3f:a5:c1:b7:40:08:1c:34:4e:
                    e7:73:46:55:02:ce:aa:d2:5e:25:3d:e6:4b:4e:95:
                    98:4b:03:4c:a5:5c:e7:4b:88:87:9e:3c:57:ad:5c:
                    ff:ff:c3:6f:e3:2a:a9:a3:85:c5:4b:15:14:db:1b:
                    27:d6:25:11:98:27:5a:11:3b:fc:07:f7:63:e5:98:
                    31:f8:80:37:19:19:96:6b:e8:cb:27:14:fd:a1:71:
                    d7:61:8c:fb:14:e7:97:c7:4c:60:ce:e1:b2:3d:74:
                    24:c3:45:e4:c0:65:a2:d5:09:5b:b0:3f:7c:79:80:
                    72:c5:2a:b9:6f:4a:88:cf:93:27:0e:14:96:b8:41:
                    57:f7:07:68:4e:78:e9:a3:91:86:f6:ed:89:8a:1f:
                    39:e5
                Exponent: 65537 (0x10001)
        X509v3 extensions:
            X509v3 Basic Constraints: 
                CA:FALSE
            X509v3 Subject Key Identifier: 
                00:41:73:9D:38:1E:DF:9D:AD:EA:D1:38:1E:08:90:0F:B9:FC:C3:1E
            X509v3 Authority Key Identifier: 
                C6:9A:17:6A:6F:CC:27:84:D8:16:A0:B0:49:47:DA:48:9E:52:0A:66
            X509v3 Key Usage: 
                Digital Signature
            X509v3 Extended Key Usage: 
                TLS Web Client Authentication
            1.2.3.4.5.6.7.8.1: 
                ..Role=viewer
    Signature Algorithm: sha256WithRSAEncryption
    Signature Value:
        1b:be:42:25:6a:66:77:2a:cf:94:64:b5:34:b9:6a:58:b2:b7:
        31:a9:84:e2:5a:41:9f:b7:23:ca:77:b1:0f:1c:a2:53:54:48:
        1f:0e:b4:ec:7e:fe:59:fa:0f:d8:41:8e:a0:ae:b5:f4:7f:43:
        2d:c3:34:f6:a2:79:8c:40:62:9b:78:66:4f:34:a1:c0:cf:7a:
        9d:d9:40:cf:86:7b:9b:31:d4:bc:a9:32:65:fc:17:f9:d0:f3:
        5b:84:a8:d0:37:21:61:89:29:7d:3c:f0:16:36:10:87:c5:9f:
        83:c4:2f:18:a7:88:24:6c:88:6d:2c:b9:19:2e:5d:5c:d8:74:
        bc:eb:62:cf:94:e6:dd:b3:0b:b8:33:61:da:da:bf:28:ff:16:
        5f:44:bf:b8:c3:b6:f9:18:a1:79:9f:0a:23:ee:f6:e4:80:1e:
        cd:2e:0e:77:98:a2:6c:15:a4:40:27:9e:3c:c8:cc:9b:03:55:
        39:9f:ab:df:a8:b6:3a:29:ac:bc:e6:9e:4d:1b:0b:ce:46:ed:
        ab:dc:3f:97:b4:fd:9f:47:66:d8:2a:99:41:f9:c8:c4:68:c4:
        0c:bc:33:b2:84:f1:e0:c6:14:e5:d8:d4:4a:e5:61:ce:c4:16:
        84:91:4c:e2:a0:c8:45:9b:23:6c:54:38:47:67:de:30:3d:3e:
        32:39:8f:37:63:a3:90:99:91:d5:ad:60:0b:40:b2:8b:64:c2:
        e6:72:fa:78:fb:bb:8f:be:03:09:86:ba:63:5f:f2:68:6e:ef:
        83:c6:a6:c2:51:32:17:83:9b:03:29:ca:fc:cb:81:d9:96:f9:
        e2:c7:91:68:f3:8d:fe:bf:69:62:87:e8:00:07:48:7a:36:00:
        79:d5:1b:1f:95:e8:43:4e:8c:a9:a0:05:82:bf:8f:c6:01:95:
        69:c6:b2:21:57:48:ab:6e:d4:f7:33:87:fa:4e:38:4d:7b:fd:
        e9:63:73:59:0b:5a:0a:43:39:27:83:78:98:e8:69:2c:6f:2b:
        04:25:e4:7b:e7:63:2c:3a:bc:2a:0b:e8:74:dd:2c:9a:ee:66:
        a6:b4:d7:fc:6d:3e:87:a1:df:90:33:31:fb:99:a1:58:5a:01:
        c8:4b:a5:39:92:e4:db:2b:f6:55:54:b1:9b:c1:fe:90:d1:57:
        2f:a3:c4:94:65:f7:44:58:c7:15:1f:3d:3a:37:28:3c:16:aa:
        fc:21:61:09:5d:a4:31:69:e6:b3:cf:a4:32:d2:a9:7f:de:8b:
        53:93:ed:c1:68:91:f0:03:85:0e:2b:25:ec:d6:95:5f:00:37:
        1d:f9:38:f9:08:35:2b:0f:64:fa:ff:31:85:ec:4b:1a:c6:73:
        0d:b1:88:fc:2e:23:c1:96
-----BEGIN CERTIFICATE-----
MIIEfjCCAmagAwIBAgICEAMwDQYJKoZIhvcNAQELBQAwSTELMAkGA1UEBhMCSU4x
DjAMBgNVBAgMBUJpaGFyMRUwEwYDVQQKDAxEZW1vU2VydmljZXMxEzARBgNVBAMM
CkRlbW9Sb290Q0EwHhcNMjUxMTIwMDkwMzU1WhcNMjYxMTIwMDkwMzU1WjAtMQsw
CQYDVQQGEwJJTjEOMAwGA1UECgwFTXlPcmcxDjAMBgNVBAMMBXJhaHVsMIIBIjAN
BgkqhkiG9w0BAQEFAAOCAQ8AMIIBCgKCAQEAjG+qgG9TQrpC5nEJ3EoqwXaqq/9B
Ojp9DXORxxarvBIhNtGTAyTll/QMM2wyud1vVdRL8oEdLkCtfib9QOsXyvzmb1wL
sHndlSrqEARqZNDMpc7dJ9bY2n3doY1kroTjzUinCBTokDkM7ZqB7ec/pcG3QAgc
NE7nc0ZVAs6q0l4lPeZLTpWYSwNMpVznS4iHnjxXrVz//8Nv4yqpo4XFSxUU2xsn
1iURmCdaETv8B/dj5Zgx+IA3GRmWa+jLJxT9oXHXYYz7FOeXx0xgzuGyPXQkw0Xk
wGWi1QlbsD98eYByxSq5b0qIz5MnDhSWuEFX9wdoTnjpo5GG9u2Jih855QIDAQAB
o4GLMIGIMAkGA1UdEwQCMAAwHQYDVR0OBBYEFABBc504Ht+drerROB4IkA+5/MMe
MB8GA1UdIwQYMBaAFMaaF2pvzCeE2BagsElH2kieUgpmMAsGA1UdDwQEAwIHgDAT
BgNVHSUEDDAKBggrBgEFBQcDAjAZBggqAwQFBgcIAQQNDAtSb2xlPXZpZXdlcjAN
BgkqhkiG9w0BAQsFAAOCAgEAG75CJWpmdyrPlGS1NLlqWLK3MamE4lpBn7cjynex
DxyiU1RIHw607H7+WfoP2EGOoK619H9DLcM09qJ5jEBim3hmTzShwM96ndlAz4Z7
mzHUvKkyZfwX+dDzW4So0DchYYkpfTzwFjYQh8Wfg8QvGKeIJGyIbSy5GS5dXNh0
vOtiz5Tm3bMLuDNh2tq/KP8WX0S/uMO2+RiheZ8KI+725IAezS4Od5iibBWkQCee
PMjMmwNVOZ+r36i2OimsvOaeTRsLzkbtq9w/l7T9n0dm2CqZQfnIxGjEDLwzsoTx
4MYU5djUSuVhzsQWhJFM4qDIRZsjbFQ4R2feMD0+MjmPN2OjkJmR1a1gC0Cyi2TC
5nL6ePu7j74DCYa6Y1/yaG7vg8amwlEyF4ObAynK/MuB2Zb54seRaPON/r9pYofo
AAdIejYAedUbH5XoQ06MqaAFgr+PxgGVacayIVdIq27U9zOH+k44TXv96WNzWQta
CkM5J4N4mOhpLG8rBCXke+djLDq8KgvodN0smu5mprTX/G0+h6HfkDMx+5mhWFoB
yEulOZLk2yv2VVSxm8H+kNFXL6PElGX3RFjHFR89OjcoPBaq/CFhCV2kMWnms8+k
MtKpf96LU5PtwWiR8AOFDisl7NaVXwA3Hfk4+Qg1Kw9k+v8xhexLGsZzDbGI/C4j
wZY=
-----END CERTIFICATE-----
