Certificate:
    Data:
        Version: 3 (0x2)
        Serial Number: 4100 (0x1004)
        Signature Algorithm: sha256WithRSAEncryption
        Issuer: C=IN, ST=Bihar, O=DemoServices, CN=DemoRootCA
        Validity
            Not Before: Nov 24 05:01:33 2025 GMT
            Not After : Nov 24 05:01:33 2026 GMT
        Subject: C=IN, O=MyOrg, CN=bipin
        Subject Public Key Info:
            Public Key Algorithm: rsaEncryption
                Public-Key: (2048 bit)
                Modulus:
                    00:98:90:ed:24:97:17:4b:54:fb:5e:db:75:8f:ba:
                    fa:82:0a:6c:2c:20:43:2e:13:74:88:41:fa:d0:13:
                    de:ff:5f:b9:ba:d2:68:2b:ad:c5:15:46:12:0a:bf:
                    0d:e2:98:89:4f:be:06:00:cc:67:bc:2f:65:c3:50:
                    61:b1:c9:9f:40:ac:a4:6f:be:09:e8:c3:1d:5c:99:
                    41:66:d6:34:99:d8:c1:74:4d:6f:cf:72:cd:3f:8c:
                    36:c6:d1:81:15:17:3b:53:c5:ae:33:89:e2:1c:81:
                    bb:57:6a:11:fb:9a:c0:6e:32:6d:2f:51:7e:c9:33:
                    9c:78:d9:2f:77:c1:5b:82:90:e5:9f:be:69:ae:fc:
                    a1:9d:ea:7f:ad:61:d9:56:7e:5a:00:0b:4f:2e:be:
                    24:2b:00:62:7a:70:ad:2c:87:03:f6:ca:13:5a:4f:
                    24:fa:ee:92:94:39:c0:fe:14:05:12:e8:65:11:2b:
                    31:80:54:51:d0:32:c5:75:08:7d:f6:af:dc:a9:06:
                    35:e4:a6:50:44:e0:ec:00:d5:0d:ac:16:de:f1:bd:
                    95:01:0c:df:4b:c6:c4:bb:28:1f:8e:e2:0e:d3:8b:
                    4d:13:9c:21:3d:45:22:68:68:6f:c4:80:9a:2b:ff:
                    fd:fe:aa:e6:15:fb:c6:47:f3:99:6c:e0:7a:e4:d4:
                    b4:21
                Exponent: 65537 (0x10001)
        X509v3 extensions:
            X509v3 Basic Constraints: 
                CA:FALSE
            X509v3 Subject Key Identifier: 
                21:FD:9B:BF:EF:C7:9A:AE:BF:F0:14:8C:96:FB:02:6B:70:7A:00:80
            X509v3 Authority Key Identifier: 
                C6:9A:17:6A:6F:CC:27:84:D8:16:A0:B0:49:47:DA:48:9E:52:0A:66
            X509v3 Key Usage: 
                Digital Signature
            X509v3 Extended Key Usage: 
                TLS Web Client Authentication
            1.2.3.4.5.6.7.8.1: 
                .
Role=admin
    Signature Algorithm: sha256WithRSAEncryption
    Signature Value:
        28:36:51:29:57:08:9a:8f:c9:f7:60:7a:4b:83:76:2c:f9:26:
        66:7d:2a:de:e5:1d:5d:75:b0:ca:cd:0f:82:80:d5:70:14:7e:
        15:76:d3:c9:50:24:5c:72:1a:b5:24:55:d3:fc:5e:e2:27:a7:
        cb:20:06:71:1b:26:66:0e:c7:7c:c8:65:27:b1:f5:fd:21:83:
        f9:9e:cb:d2:71:86:d4:42:22:54:d7:40:59:b4:6c:6d:b0:7c:
        5d:8c:07:c8:d1:bc:e4:fd:ef:dd:29:5a:5b:15:6e:1d:59:14:
        fd:44:66:f8:c0:41:a2:7b:a6:82:bd:0d:6f:b8:a7:f8:95:c2:
        fe:f2:71:aa:37:59:b7:55:49:13:de:45:27:b1:de:3f:a6:a7:
        5d:b8:ff:81:50:96:06:01:47:d9:5f:ee:34:56:65:77:1c:2e:
        11:a2:c4:3e:de:d1:2c:62:c4:c4:25:26:6d:30:bf:e8:ce:d9:
        12:61:b7:97:79:b3:20:0d:f0:e8:33:2a:fa:30:0a:c5:5a:e0:
        bc:99:e4:a7:8f:67:0a:e6:65:e5:4e:79:d3:cd:46:c4:af:63:
        81:a1:9c:1d:fd:42:df:39:a6:51:1e:3c:db:4e:c7:b9:91:e7:
        d1:f3:b8:92:7f:5a:16:fa:57:1a:7c:0a:23:19:0f:3f:18:b1:
        55:e7:24:0f:5d:c7:e1:1a:10:ea:b2:2a:ce:ba:48:a5:f9:09:
        57:bd:69:9c:a5:e4:02:11:0b:26:92:94:05:eb:a4:2d:03:2d:
        83:2a:02:05:79:ad:1c:cd:d5:31:ad:d6:03:4a:d9:72:e7:43:
        da:2c:b0:15:97:86:97:6a:29:d7:e3:80:b3:f6:bf:8d:27:8e:
        4b:17:67:cf:a1:02:5c:02:09:ff:4b:6c:48:31:17:13:4f:82:
        a0:09:92:15:d2:7b:be:60:67:3d:61:8f:2b:f4:ce:ce:62:0b:
        4b:11:e5:1d:64:45:41:2a:b7:ac:bd:23:51:98:f5:db:22:ec:
        b3:d0:0a:2c:08:5f:99:d4:48:44:f6:c6:fb:86:24:f8:55:57:
        c8:ca:c7:29:1e:f9:da:96:13:6f:21:44:b6:17:f8:f5:92:5a:
        f5:f4:06:6a:25:b4:16:d7:dc:77:e2:4e:b5:52:7c:a7:9c:40:
        51:53:6b:63:f1:70:8a:ec:71:b6:4c:27:56:3b:0d:48:a6:da:
        3f:35:56:d3:cc:d0:1d:81:cc:ac:c5:4e:51:6c:80:b2:8f:00:
        c6:42:fd:d9:24:1b:01:13:1e:5c:d0:a8:89:8a:67:d3:13:9b:
        82:86:04:bf:19:6e:24:79:6a:26:a2:cd:69:e1:b8:bc:3d:46:
        95:0c:e6:25:82:aa:49:33
-----BEGIN CERTIFICATE-----
MIIEfTCCAmWgAwIBAgICEAQwDQYJKoZIhvcNAQELBQAwSTELMAkGA1UEBhMCSU4x
DjAMBgNVBAgMBUJpaGFyMRUwEwYDVQQKDAxEZW1vU2VydmljZXMxEzARBgNVBAMM
CkRlbW9Sb290Q0EwHhcNMjUxMTI0MDUwMTMzWhcNMjYxMTI0MDUwMTMzWjAtMQsw
CQYDVQQGEwJJTjEOMAwGA1UECgwFTXlPcmcxDjAMBgNVBAMMBWJpcGluMIIBIjAN
BgkqhkiG9w0BAQEFAAOCAQ8AMIIBCgKCAQEAmJDtJJcXS1T7Xtt1j7r6ggpsLCBD
LhN0iEH60BPe/1+5utJoK63FFUYSCr8N4piJT74GAMxnvC9lw1BhscmfQKykb74J
6MMdXJlBZtY0mdjBdE1vz3LNP4w2xtGBFRc7U8WuM4niHIG7V2oR+5rAbjJtL1F+
yTOceNkvd8FbgpDln75prvyhnep/rWHZVn5aAAtPLr4kKwBienCtLIcD9soTWk8k
+u6SlDnA/hQFEuhlESsxgFRR0DLFdQh99q/cqQY15KZQRODsANUNrBbe8b2VAQzf
S8bEuygfjuIO04tNE5whPUUiaGhvxICaK//9/qrmFfvGR/OZbOB65NS0IQIDAQAB
o4GKMIGHMAkGA1UdEwQCMAAwHQYDVR0OBBYEFCH9m7/vx5quv/AUjJb7AmtwegCA
MB8GA1UdIwQYMBaAFMaaF2pvzCeE2BagsElH2kieUgpmMAsGA1UdDwQEAwIHgDAT
BgNVHSUEDDAKBggrBgEFBQcDAjAYBggqAwQFBgcIAQQMDApSb2xlPWFkbWluMA0G
CSqGSIb3DQEBCwUAA4ICAQAoNlEpVwiaj8n3YHpLg3Ys+SZmfSre5R1ddbDKzQ+C
gNVwFH4VdtPJUCRcchq1JFXT/F7iJ6fLIAZxGyZmDsd8yGUnsfX9IYP5nsvScYbU
QiJU10BZtGxtsHxdjAfI0bzk/e/dKVpbFW4dWRT9RGb4wEGie6aCvQ1vuKf4lcL+
8nGqN1m3VUkT3kUnsd4/pqdduP+BUJYGAUfZX+40VmV3HC4RosQ+3tEsYsTEJSZt
ML/oztkSYbeXebMgDfDoMyr6MArFWuC8meSnj2cK5mXlTnnTzUbEr2OBoZwd/ULf
OaZRHjzbTse5kefR87iSf1oW+lcafAojGQ8/GLFV5yQPXcfhGhDqsirOukil+QlX
vWmcpeQCEQsmkpQF66QtAy2DKgIFea0czdUxrdYDStly50PaLLAVl4aXainX44Cz
9r+NJ45LF2fPoQJcAgn/S2xIMRcTT4KgCZIV0nu+YGc9YY8r9M7OYgtLEeUdZEVB
KresvSNRmPXbIuyz0AosCF+Z1EhE9sb7hiT4VVfIyscpHvnalhNvIUS2F/j1klr1
9AZqJbQW19x34k61UnynnEBRU2tj8XCK7HG2TCdWOw1Ipto/NVbTzNAdgcysxU5R
bICyjwDGQv3ZJBsBEx5c0KiJimfTE5uChgS/GW4keWomos1p4bi8PUaVDOYlgqpJ
Mw==
-----END CERTIFICATE-----
