Certificate:
    Data:
        Version: 3 (0x2)
        Serial Number: 4101 (0x1005)
        Signature Algorithm: sha256WithRSAEncryption
        Issuer: C=IN, ST=Bihar, O=DemoServices, CN=DemoRootCA
        Validity
            Not Before: Nov 24 06:22:14 2025 GMT
            Not After : Nov 24 06:22:14 2026 GMT
        Subject: C=IN, O=MyCompany, CN=VishalUser
        Subject Public Key Info:
            Public Key Algorithm: rsaEncryption
                Public-Key: (2048 bit)
                Modulus:
                    00:96:74:98:89:8f:a4:01:a5:b5:69:dc:07:09:71:
                    ff:2a:1d:e0:6e:35:97:aa:90:49:b4:c1:c4:e2:72:
                    4e:9e:f4:fc:ac:dd:e7:75:d3:39:fe:e6:31:f9:71:
                    2f:25:35:20:f2:ab:61:03:97:3f:09:8b:40:05:45:
                    3e:01:fb:95:03:69:88:27:af:8d:7b:aa:75:d2:1d:
                    e4:36:62:ba:b7:e8:6d:2f:30:ec:1b:4c:92:65:80:
                    75:94:2e:c6:d6:14:33:a4:ea:ab:a0:73:24:3f:63:
                    44:85:24:9d:88:68:4f:26:36:7d:1a:d7:f7:fa:64:
                    22:c3:b6:63:dd:aa:38:db:2d:eb:7d:31:9c:57:6f:
                    87:55:f8:32:d2:99:5d:36:75:0d:ce:82:44:50:38:
                    d4:1e:be:1d:59:a4:4f:49:0d:3d:4e:42:ed:2d:21:
                    5f:a6:70:28:b6:cd:1c:6d:36:4e:a5:62:bc:33:10:
                    c9:98:67:7f:28:78:94:26:55:43:1d:76:04:a5:09:
                    a3:4d:8b:3e:75:01:58:df:dc:7e:50:d3:3f:3f:32:
                    fc:1d:d9:a0:30:a4:71:e7:d1:78:6b:d5:92:79:c5:
                    9a:7f:92:bb:e3:19:bb:d2:25:62:19:3c:90:01:71:
                    ec:1c:4d:3c:c3:c8:d5:bd:64:68:75:d5:4c:0e:6d:
                    12:e9
                Exponent: 65537 (0x10001)
        X509v3 extensions:
            X509v3 Basic Constraints: 
                CA:FALSE
            X509v3 Subject Key Identifier: 
                2B:4A:70:C8:8B:10:9B:3A:59:73:A1:C5:EF:59:B5:D2:9A:CF:26:04
            X509v3 Authority Key Identifier: 
                C6:9A:17:6A:6F:CC:27:84:D8:16:A0:B0:49:47:DA:48:9E:52:0A:66
            X509v3 Key Usage: 
                Digital Signature
            X509v3 Extended Key Usage: 
                TLS Web Client Authentication
            1.2.3.4.5.6.7.8.1: 
                .
Role=admin
    Signature Algorithm: sha256WithRSAEncryption
    Signature Value:
        85:45:e1:cb:b1:17:c4:bc:6e:68:39:3d:d8:da:8d:77:57:7d:
        b1:a9:77:98:f8:bf:2d:d4:ec:2c:8f:d2:22:0a:f2:1f:a6:22:
        77:c7:56:e3:66:be:f0:2c:78:8b:b0:ab:6f:aa:c3:ba:03:f6:
        76:68:20:00:05:1d:e5:27:32:5a:ef:e6:7f:26:31:32:f8:12:
        d5:61:7a:ec:d9:e0:cc:72:bd:2a:4f:0d:b1:0c:bd:22:be:dd:
        b8:07:75:cb:95:ad:09:cd:88:6c:51:1c:eb:eb:88:37:1a:4b:
        95:1f:94:4a:91:01:3e:4d:86:2a:c4:a4:04:0b:89:05:cb:fa:
        5b:d4:30:1e:bb:81:ad:bf:d0:76:62:ca:6a:6a:c0:d9:ba:16:
        99:3e:f9:99:e3:d1:0c:11:fd:ef:64:08:c8:ee:44:10:bc:1d:
        a3:38:b8:3a:54:67:d9:b7:08:94:11:7e:4d:02:0b:ae:e1:1a:
        bf:08:22:3a:9b:c1:e7:de:a8:58:11:4a:ed:74:3b:a6:47:39:
        8e:c0:88:16:33:f4:0c:b0:7c:a5:3e:26:2c:ee:6a:13:f2:5d:
        01:13:dd:31:bd:c1:2e:33:f7:18:a7:e4:b9:e1:6e:86:03:72:
        b3:34:98:14:aa:c3:12:7b:8a:0a:9d:e9:4c:36:c3:54:88:08:
        74:d3:8e:c3:a9:5a:76:c6:b5:5a:a2:16:71:a8:1f:c2:78:78:
        73:d8:6c:df:c8:cd:f8:d7:2c:5c:5b:e2:89:38:f6:ee:6d:ed:
        29:95:41:df:98:6c:05:7c:88:2d:c6:02:42:20:e0:b4:a8:de:
        bc:5f:13:47:99:ec:62:48:2f:34:24:00:92:e4:c5:ac:a6:e6:
        16:f2:fc:7e:7a:fc:93:05:66:51:3b:4b:ea:74:96:45:d8:b6:
        89:e1:f6:4a:8e:96:70:d8:8d:34:c6:86:9d:51:be:f7:bf:49:
        15:af:d2:cc:01:4c:52:0a:98:80:34:45:21:c3:20:3d:fb:43:
        18:e4:11:42:79:96:6f:b7:97:02:24:14:1b:1f:56:7e:5b:93:
        fd:43:6a:91:83:69:61:42:96:b2:ab:ea:c2:49:40:b1:95:aa:
        d4:89:83:ad:52:9c:71:6d:a8:e3:e8:e7:dd:a9:3f:97:0b:59:
        53:a5:9b:5e:6d:14:83:af:1e:d2:64:a5:f7:d6:c2:69:34:03:
        27:7c:5f:e5:d8:1a:b2:c4:7b:09:0a:ea:c0:b3:00:df:62:e7:
        5d:8b:3c:7f:45:da:af:55:e4:ed:e8:1b:54:db:b1:59:47:b0:
        56:78:ce:70:3f:2a:0d:6a:79:ca:b6:d4:9b:f6:31:e0:de:9d:
        bc:4b:16:0b:21:0b:cb:1d
-----BEGIN CERTIFICATE-----
MIIEhjCCAm6gAwIBAgICEAUwDQYJKoZIhvcNAQELBQAwSTELMAkGA1UEBhMCSU4x
DjAMBgNVBAgMBUJpaGFyMRUwEwYDVQQKDAxEZW1vU2VydmljZXMxEzARBgNVBAMM
CkRlbW9Sb290Q0EwHhcNMjUxMTI0MDYyMjE0WhcNMjYxMTI0MDYyMjE0WjA2MQsw
CQYDVQQGEwJJTjESMBAGA1UECgwJTXlDb21wYW55MRMwEQYDVQQDDApWaXNoYWxV
c2VyMIIBIjANBgkqhkiG9w0BAQEFAAOCAQ8AMIIBCgKCAQEAlnSYiY+kAaW1adwH
CXH/Kh3gbjWXqpBJtMHE4nJOnvT8rN3nddM5/uYx+XEvJTUg8qthA5c/CYtABUU+
AfuVA2mIJ6+Ne6p10h3kNmK6t+htLzDsG0ySZYB1lC7G1hQzpOqroHMkP2NEhSSd
iGhPJjZ9Gtf3+mQiw7Zj3ao42y3rfTGcV2+HVfgy0pldNnUNzoJEUDjUHr4dWaRP
SQ09TkLtLSFfpnAots0cbTZOpWK8MxDJmGd/KHiUJlVDHXYEpQmjTYs+dQFY39x+
UNM/PzL8HdmgMKRx59F4a9WSecWaf5K74xm70iViGTyQAXHsHE08w8jVvWRoddVM
Dm0S6QIDAQABo4GKMIGHMAkGA1UdEwQCMAAwHQYDVR0OBBYEFCtKcMiLEJs6WXOh
xe9ZtdKazyYEMB8GA1UdIwQYMBaAFMaaF2pvzCeE2BagsElH2kieUgpmMAsGA1Ud
DwQEAwIHgDATBgNVHSUEDDAKBggrBgEFBQcDAjAYBggqAwQFBgcIAQQMDApSb2xl
PWFkbWluMA0GCSqGSIb3DQEBCwUAA4ICAQCFReHLsRfEvG5oOT3Y2o13V32xqXeY
+L8t1Owsj9IiCvIfpiJ3x1bjZr7wLHiLsKtvqsO6A/Z2aCAABR3lJzJa7+Z/JjEy
+BLVYXrs2eDMcr0qTw2xDL0ivt24B3XLla0JzYhsURzr64g3GkuVH5RKkQE+TYYq
xKQEC4kFy/pb1DAeu4Gtv9B2YspqasDZuhaZPvmZ49EMEf3vZAjI7kQQvB2jOLg6
VGfZtwiUEX5NAguu4Rq/CCI6m8Hn3qhYEUrtdDumRzmOwIgWM/QMsHylPiYs7moT
8l0BE90xvcEuM/cYp+S54W6GA3KzNJgUqsMSe4oKnelMNsNUiAh0047DqVp2xrVa
ohZxqB/CeHhz2GzfyM341yxcW+KJOPbube0plUHfmGwFfIgtxgJCIOC0qN68XxNH
mexiSC80JACS5MWspuYW8vx+evyTBWZRO0vqdJZF2LaJ4fZKjpZw2I00xoadUb73
v0kVr9LMAUxSCpiANEUhwyA9+0MY5BFCeZZvt5cCJBQbH1Z+W5P9Q2qRg2lhQpay
q+rCSUCxlarUiYOtUpxxbajj6OfdqT+XC1lTpZtebRSDrx7SZKX31sJpNAMnfF/l
2BqyxHsJCurAswDfYuddizx/RdqvVeTt6BtU27FZR7BWeM5wPyoNannKttSb9jHg
3p28SxYLIQvLHQ==
-----END CERTIFICATE-----
