Certificate:
    Data:
        Version: 3 (0x2)
        Serial Number: 4102 (0x1006)
        Signature Algorithm: sha256WithRSAEncryption
        Issuer: C=IN, ST=Bihar, O=DemoServices, CN=DemoRootCA
        Validity
            Not Before: Nov 24 06:31:44 2025 GMT
            Not After : Nov 24 06:31:44 2026 GMT
        Subject: C=IN, O=MyCompany, CN=aniket
        Subject Public Key Info:
            Public Key Algorithm: rsaEncryption
                Public-Key: (2048 bit)
                Modulus:
                    00:95:10:fe:12:7b:f6:98:d2:2d:36:40:25:86:a7:
                    1c:e4:0a:1e:df:78:08:ee:fa:b6:c5:12:b9:87:dc:
                    3c:c4:69:f5:9e:af:90:0c:4a:27:65:13:f8:1f:e2:
                    de:bf:19:29:db:3f:ee:37:d5:4c:55:b1:2c:98:a9:
                    69:a0:4a:35:78:61:0e:0e:dd:f7:2e:58:6b:bf:41:
                    93:97:8c:eb:a4:36:3a:27:35:ef:ad:71:4c:39:24:
                    82:35:27:31:ea:cf:db:84:e7:76:3e:07:5e:51:04:
                    bd:e8:65:e0:3b:28:48:dc:7f:dc:f9:98:1f:59:ec:
                    e8:74:c3:50:37:ad:69:62:7e:42:bd:87:07:76:4d:
                    c9:16:08:27:07:02:dd:1c:54:29:88:0a:03:72:31:
                    b6:9c:e3:4d:56:de:19:8c:c2:77:3e:7d:0b:ef:8e:
                    e3:5d:0b:f8:df:3e:e8:95:4d:16:65:f6:35:cb:f5:
                    41:ad:44:74:73:00:db:6b:3f:cb:ae:9f:6e:b9:fe:
                    af:e4:cc:aa:9a:26:c9:c8:21:10:d5:77:8f:43:91:
                    89:04:c4:50:b1:df:11:df:38:e5:ad:14:2f:05:e6:
                    dd:69:0f:b8:00:b4:a8:7b:87:c1:3b:98:e7:d2:1f:
                    9f:cf:f0:31:27:1c:83:a9:9a:ec:ad:cf:9f:61:e7:
                    f7:99
                Exponent: 65537 (0x10001)
        X509v3 extensions:
            X509v3 Basic Constraints: 
                CA:FALSE
            X509v3 Subject Key Identifier: 
                55:88:0F:58:4B:76:09:BE:3B:19:A0:BC:69:5A:F1:BF:60:E9:FB:8A
            X509v3 Authority Key Identifier: 
                C6:9A:17:6A:6F:CC:27:84:D8:16:A0:B0:49:47:DA:48:9E:52:0A:66
            X509v3 Key Usage: 
                Digital Signature
            X509v3 Extended Key Usage: 
                TLS Web Client Authentication
            1.2.3.4.5.6.7.8.1: 
                .
Role=admin
    Signature Algorithm: sha256WithRSAEncryption
    Signature Value:
        13:59:02:0d:e8:2d:9c:2d:ce:3c:e1:7b:b6:9f:4e:5e:23:22:
        8d:40:4e:fb:39:9e:62:37:d8:e4:e6:ec:3f:a5:fb:e9:68:19:
        43:8c:7f:c5:c2:60:26:c4:8e:c5:0d:34:ed:5c:73:55:b1:d6:
        ed:d1:05:37:d3:db:40:4d:95:3c:d6:bf:5f:bb:b5:d0:3f:a7:
        35:d8:e8:01:c4:9e:c3:29:fe:f3:c2:89:2f:c3:92:7c:8f:98:
        f8:e0:93:54:9e:96:ef:68:62:7c:d9:99:8a:ea:d4:64:08:99:
        a4:0e:5e:54:28:c8:cf:c2:a7:7c:a0:12:38:04:14:88:37:46:
        3f:fa:14:19:77:49:5a:c1:c0:4c:70:89:5e:a1:28:2f:9f:30:
        63:41:b2:ae:7b:eb:cf:bd:ff:79:2c:31:98:7a:e9:24:2d:f2:
        db:8b:c0:dd:aa:d0:e4:54:68:62:b0:18:ee:ef:c3:4d:7e:dc:
        97:f3:98:e2:df:fd:6f:2e:13:a6:75:ef:03:dc:8d:a8:66:f7:
        2d:8b:5f:63:a0:56:ed:db:3c:25:53:00:41:0b:70:48:66:70:
        47:3d:e5:ac:8f:13:8c:84:c4:e2:de:33:ea:f1:ce:62:f5:8a:
        5a:1f:18:4e:0f:fb:a2:6c:1f:28:2e:46:58:9f:87:57:21:36:
        76:a5:ac:08:6c:34:34:a7:8a:6c:87:74:c8:cd:c6:8c:77:45:
        73:37:e9:ff:7e:77:e9:3b:a4:80:9b:b9:3f:68:f3:ce:d6:a7:
        26:c8:d3:c6:e0:96:fc:ea:25:b6:27:2a:1d:ab:8c:d4:62:af:
        cf:97:7e:09:48:64:9a:80:64:e4:ff:34:a0:79:c9:75:af:b1:
        61:c0:e8:53:4c:ba:5a:da:b9:71:46:1e:0e:4a:df:68:c7:b1:
        13:a7:7d:b7:78:89:85:78:55:64:1d:77:ed:ee:34:a9:d8:40:
        ca:7e:90:be:c4:04:c6:13:b3:ba:4d:da:f1:15:a2:de:a2:47:
        d2:f4:eb:b8:66:4a:b4:0f:0d:e0:a5:2f:2e:4a:c6:6f:f5:90:
        e7:93:61:2b:07:9b:f4:cd:1e:5f:0d:76:82:35:55:4e:45:1a:
        65:8d:1c:34:59:08:c8:9f:89:94:f7:17:f6:c2:80:a1:0a:6d:
        65:6c:d2:78:ed:08:c6:0f:10:61:b9:d2:7b:a1:4b:c8:98:7b:
        c0:14:3d:20:ed:45:46:6d:e3:e6:52:07:c4:0b:25:f9:bd:4b:
        f7:ff:04:39:40:0f:a0:79:5c:42:7d:98:7f:18:d4:0c:ac:b0:
        e6:98:80:ef:f6:f0:dc:c9:98:57:0e:0b:44:e9:75:eb:7e:1d:
        13:47:a5:63:85:10:5e:49
-----BEGIN CERTIFICATE-----
MIIEgjCCAmqgAwIBAgICEAYwDQYJKoZIhvcNAQELBQAwSTELMAkGA1UEBhMCSU4x
DjAMBgNVBAgMBUJpaGFyMRUwEwYDVQQKDAxEZW1vU2VydmljZXMxEzARBgNVBAMM
CkRlbW9Sb290Q0EwHhcNMjUxMTI0MDYzMTQ0WhcNMjYxMTI0MDYzMTQ0WjAyMQsw
CQYDVQQGEwJJTjESMBAGA1UECgwJTXlDb21wYW55MQ8wDQYDVQQDDAZhbmlrZXQw
ggEiMA0GCSqGSIb3DQEBAQUAA4IBDwAwggEKAoIBAQCVEP4Se/aY0i02QCWGpxzk
Ch7feAju+rbFErmH3DzEafWer5AMSidlE/gf4t6/GSnbP+431UxVsSyYqWmgSjV4
YQ4O3fcuWGu/QZOXjOukNjonNe+tcUw5JII1JzHqz9uE53Y+B15RBL3oZeA7KEjc
f9z5mB9Z7Oh0w1A3rWlifkK9hwd2TckWCCcHAt0cVCmICgNyMbac401W3hmMwnc+
fQvvjuNdC/jfPuiVTRZl9jXL9UGtRHRzANtrP8uun265/q/kzKqaJsnIIRDVd49D
kYkExFCx3xHfOOWtFC8F5t1pD7gAtKh7h8E7mOfSH5/P8DEnHIOpmuytz59h5/eZ
AgMBAAGjgYowgYcwCQYDVR0TBAIwADAdBgNVHQ4EFgQUVYgPWEt2Cb47GaC8aVrx
v2Dp+4owHwYDVR0jBBgwFoAUxpoXam/MJ4TYFqCwSUfaSJ5SCmYwCwYDVR0PBAQD
AgeAMBMGA1UdJQQMMAoGCCsGAQUFBwMCMBgGCCoDBAUGBwgBBAwMClJvbGU9YWRt
aW4wDQYJKoZIhvcNAQELBQADggIBABNZAg3oLZwtzjzhe7afTl4jIo1ATvs5nmI3
2OTm7D+l++loGUOMf8XCYCbEjsUNNO1cc1Wx1u3RBTfT20BNlTzWv1+7tdA/pzXY
6AHEnsMp/vPCiS/DknyPmPjgk1Selu9oYnzZmYrq1GQImaQOXlQoyM/Cp3ygEjgE
FIg3Rj/6FBl3SVrBwExwiV6hKC+fMGNBsq5768+9/3ksMZh66SQt8tuLwN2q0ORU
aGKwGO7vw01+3JfzmOLf/W8uE6Z17wPcjahm9y2LX2OgVu3bPCVTAEELcEhmcEc9
5ayPE4yExOLeM+rxzmL1ilofGE4P+6JsHyguRlifh1chNnalrAhsNDSnimyHdMjN
xox3RXM36f9+d+k7pICbuT9o887WpybI08bglvzqJbYnKh2rjNRir8+XfglIZJqA
ZOT/NKB5yXWvsWHA6FNMulrauXFGHg5K32jHsROnfbd4iYV4VWQdd+3uNKnYQMp+
kL7EBMYTs7pN2vEVot6iR9L067hmSrQPDeClLy5Kxm/1kOeTYSsHm/TNHl8NdoI1
VU5FGmWNHDRZCMifiZT3F/bCgKEKbWVs0njtCMYPEGG50nuhS8iYe8AUPSDtRUZt
4+ZSB8QLJfm9S/f/BDlAD6B5XEJ9mH8Y1AyssOaYgO/28NzJmFcOC0Tpdet+HRNH
pWOFEF5J
-----END CERTIFICATE-----
