Certificate:
    Data:
        Version: 3 (0x2)
        Serial Number: 4103 (0x1007)
        Signature Algorithm: sha256WithRSAEncryption
        Issuer: C=IN, ST=Bihar, O=DemoServices, CN=DemoRootCA
        Validity
            Not Before: Nov 24 10:28:14 2025 GMT
            Not After : Nov 24 10:28:14 2026 GMT
        Subject: C=IN, O=MyCompany, CN=Vishalku
        Subject Public Key Info:
            Public Key Algorithm: rsaEncryption
                Public-Key: (2048 bit)
                Modulus:
                    00:91:bc:05:30:28:e4:da:64:a3:8a:0c:0f:cb:8e:
                    8a:75:4f:31:ee:fb:47:29:1d:1a:46:86:7f:c5:ea:
                    42:ed:73:3f:b2:25:ae:f1:8a:0d:a9:87:d6:65:44:
                    12:ed:00:93:ca:96:e5:a0:b8:6e:57:89:bf:ed:11:
                    4c:fd:df:2e:b1:dc:63:01:6e:7a:b1:77:ca:98:f8:
                    78:88:8f:ab:dd:c3:95:3b:25:59:89:16:31:fc:54:
                    fc:ce:62:6a:fe:0d:54:ba:f7:50:d5:37:de:48:65:
                    27:fa:d1:2f:4f:0c:54:01:d6:87:28:d3:66:af:e4:
                    9e:d2:e4:97:81:ba:07:27:a1:6d:c0:77:10:7c:f8:
                    f3:67:42:81:3e:f8:10:22:3f:bb:37:cc:9b:0e:8d:
                    d1:1f:a7:94:45:52:34:88:08:7d:b2:f9:75:83:21:
                    cd:88:3d:67:c6:a7:24:6f:c2:27:a4:35:2f:b1:87:
                    69:66:bd:d7:e5:bf:05:4a:20:74:a8:0b:bc:24:86:
                    11:1f:85:af:e8:17:6f:98:42:73:54:59:1a:97:c1:
                    3b:32:ed:9c:e9:2e:69:59:aa:c5:93:9c:63:35:8c:
                    92:15:75:8b:54:d5:b6:8d:2c:5e:21:26:5a:28:3e:
                    0e:f3:0c:15:ee:9a:7e:a7:ea:e5:17:26:2b:c4:66:
                    51:a1
                Exponent: 65537 (0x10001)
        X509v3 extensions:
            X509v3 Basic Constraints: 
                CA:FALSE
            X509v3 Subject Key Identifier: 
                78:4F:4C:E6:BA:DB:FD:AE:1C:0C:80:E9:87:BB:F5:61:4B:AD:B7:54
            X509v3 Authority Key Identifier: 
                C6:9A:17:6A:6F:CC:27:84:D8:16:A0:B0:49:47:DA:48:9E:52:0A:66
            X509v3 Key Usage: 
                Digital Signature
            X509v3 Extended Key Usage: 
                TLS Web Client Authentication
            1.2.3.4.5.6.7.8.1: 
                .
Role=admin
    Signature Algorithm: sha256WithRSAEncryption
    Signature Value:
        ad:41:0d:1f:85:0d:c5:fa:b4:be:0d:2f:46:a3:6a:05:a5:27:
        2b:95:54:55:93:5c:f9:df:d4:1b:5c:41:46:6c:b4:e0:b5:ee:
        54:be:b5:c8:0b:a9:67:1e:2d:7b:b0:46:20:43:50:a2:05:c8:
        17:5f:9f:1b:14:b6:9a:1b:ab:1e:e9:d3:9e:39:26:27:35:d7:
        7d:e2:40:f7:3f:d3:3e:9f:b0:f5:b3:8f:69:1e:e5:80:ad:33:
        b9:93:4f:e9:e6:25:d8:a6:6c:09:db:9b:12:c0:41:5b:81:f2:
        ff:e1:7a:f4:c8:c4:68:ec:1e:db:9c:dd:6a:a3:ea:55:3d:28:
        f9:e1:8d:ef:c9:73:54:80:e9:61:84:16:bf:ab:79:41:34:94:
        61:7c:f5:5b:4e:98:14:24:00:5d:ed:9a:22:a6:04:f5:59:b4:
        65:56:5f:0a:b5:54:ec:e7:a6:71:29:da:2c:62:ec:c8:72:d3:
        65:63:2e:9e:bf:c6:5c:10:72:ed:30:01:a1:c3:05:b3:90:4a:
        53:2a:72:70:ae:b2:f7:92:42:c6:6f:bf:cf:85:37:97:5b:03:
        28:f7:f2:18:a0:15:c4:a1:f0:31:cb:da:af:79:94:f3:23:a3:
        6d:13:94:d6:ca:db:15:ec:b1:0a:52:f8:2f:bd:c5:65:b7:12:
        78:f9:4d:08:f1:b0:8b:43:d5:f0:70:69:04:41:56:a6:08:52:
        cb:4f:07:3c:71:14:7d:66:80:e1:e7:11:ac:ea:b1:8b:5a:2c:
        49:0c:67:cc:0e:d9:04:0f:f5:96:b4:3f:76:27:70:44:ce:5e:
        d4:5a:26:48:29:8e:81:5c:e3:4f:eb:72:ba:22:2f:93:ae:0b:
        38:1e:5e:f8:f2:82:db:d3:82:0e:76:79:41:b8:ff:34:0a:13:
        1c:9a:c0:b5:7c:d7:db:02:96:9f:86:b1:b4:fb:96:3a:f8:21:
        aa:f8:90:25:a4:ef:80:9c:3c:52:e3:dd:25:e0:ca:18:ac:29:
        5b:67:da:65:3d:29:68:6d:77:91:97:90:88:89:c0:bc:fd:13:
        e9:23:a8:1f:92:37:ed:4d:e0:08:76:76:3f:6e:a9:94:77:c9:
        69:fd:33:4e:90:74:81:7e:2a:b8:6b:7f:03:c3:bb:89:fb:87:
        b2:20:2a:2d:8a:b6:ab:55:e7:e7:ff:0b:d5:8e:38:ef:e5:a0:
        4c:5b:40:ea:58:07:de:67:cd:11:2f:f7:89:00:85:3e:0e:e0:
        e2:96:b4:a9:30:ce:ae:93:6d:86:17:4b:f1:ef:06:5c:cf:2e:
        90:93:86:9f:e0:8d:46:8f:93:17:0b:46:48:1f:9e:9a:e2:17:
        b2:76:3a:4e:9f:13:2b:5f
-----BEGIN CERTIFICATE-----
MIIEhDCCAmygAwIBAgICEAcwDQYJKoZIhvcNAQELBQAwSTELMAkGA1UEBhMCSU4x
DjAMBgNVBAgMBUJpaGFyMRUwEwYDVQQKDAxEZW1vU2VydmljZXMxEzARBgNVBAMM
CkRlbW9Sb290Q0EwHhcNMjUxMTI0MTAyODE0WhcNMjYxMTI0MTAyODE0WjA0MQsw
CQYDVQQGEwJJTjESMBAGA1UECgwJTXlDb21wYW55MREwDwYDVQQDDAhWaXNoYWxr
dTCCASIwDQYJKoZIhvcNAQEBBQADggEPADCCAQoCggEBAJG8BTAo5Npko4oMD8uO
inVPMe77RykdGkaGf8XqQu1zP7IlrvGKDamH1mVEEu0Ak8qW5aC4bleJv+0RTP3f
LrHcYwFuerF3ypj4eIiPq93DlTslWYkWMfxU/M5iav4NVLr3UNU33khlJ/rRL08M
VAHWhyjTZq/kntLkl4G6ByehbcB3EHz482dCgT74ECI/uzfMmw6N0R+nlEVSNIgI
fbL5dYMhzYg9Z8anJG/CJ6Q1L7GHaWa91+W/BUogdKgLvCSGER+Fr+gXb5hCc1RZ
GpfBOzLtnOkuaVmqxZOcYzWMkhV1i1TVto0sXiEmWig+DvMMFe6afqfq5RcmK8Rm
UaECAwEAAaOBijCBhzAJBgNVHRMEAjAAMB0GA1UdDgQWBBR4T0zmutv9rhwMgOmH
u/VhS623VDAfBgNVHSMEGDAWgBTGmhdqb8wnhNgWoLBJR9pInlIKZjALBgNVHQ8E
BAMCB4AwEwYDVR0lBAwwCgYIKwYBBQUHAwIwGAYIKgMEBQYHCAEEDAwKUm9sZT1h
ZG1pbjANBgkqhkiG9w0BAQsFAAOCAgEArUENH4UNxfq0vg0vRqNqBaUnK5VUVZNc
+d/UG1xBRmy04LXuVL61yAupZx4te7BGIENQogXIF1+fGxS2mhurHunTnjkmJzXX
feJA9z/TPp+w9bOPaR7lgK0zuZNP6eYl2KZsCdubEsBBW4Hy/+F69MjEaOwe25zd
aqPqVT0o+eGN78lzVIDpYYQWv6t5QTSUYXz1W06YFCQAXe2aIqYE9Vm0ZVZfCrVU
7OemcSnaLGLsyHLTZWMunr/GXBBy7TABocMFs5BKUypycK6y95JCxm+/z4U3l1sD
KPfyGKAVxKHwMcvar3mU8yOjbROU1srbFeyxClL4L73FZbcSePlNCPGwi0PV8HBp
BEFWpghSy08HPHEUfWaA4ecRrOqxi1osSQxnzA7ZBA/1lrQ/didwRM5e1FomSCmO
gVzjT+tyuiIvk64LOB5e+PKC29OCDnZ5Qbj/NAoTHJrAtXzX2wKWn4axtPuWOvgh
qviQJaTvgJw8UuPdJeDKGKwpW2faZT0paG13kZeQiInAvP0T6SOoH5I37U3gCHZ2
P26plHfJaf0zTpB0gX4quGt/A8O7ifuHsiAqLYq2q1Xn5/8L1Y447+WgTFtA6lgH
3mfNES/3iQCFPg7g4pa0qTDOrpNthhdL8e8GXM8ukJOGn+CNRo+TFwtGSB+emuIX
snY6Tp8TK18=
-----END CERTIFICATE-----
