Certificate:
    Data:
        Version: 3 (0x2)
        Serial Number: 4096 (0x1000)
        Signature Algorithm: sha256WithRSAEncryption
        Issuer: C=IN, ST=Bihar, O=DemoServices, OU=Intermediate, CN=DemoIntermediateCA
        Validity
            Not Before: Feb 20 10:31:45 2026 GMT
            Not After : Feb 20 10:31:45 2027 GMT
        Subject: CN=Vishal
        Subject Public Key Info:
            Public Key Algorithm: rsaEncryption
                Public-Key: (2048 bit)
                Modulus:
                    00:8f:57:d2:9d:03:76:d6:30:b2:ed:f1:3b:45:2b:
                    ea:3f:c9:6e:6b:ac:92:08:d8:9b:68:8f:aa:cb:b5:
                    b1:4d:88:60:19:3f:5e:c6:1e:1c:28:18:c3:ab:cd:
                    0b:2b:87:67:38:58:c0:27:90:32:bd:b6:fd:e7:a4:
                    53:c3:01:ce:0f:ed:0b:37:8e:49:6a:ca:f9:e7:36:
                    10:df:75:54:ba:9f:00:d7:ce:c4:25:9e:b0:2c:a0:
                    d0:39:5c:c8:03:0e:8e:25:2e:f9:aa:ca:19:3f:61:
                    93:61:8a:86:83:04:11:f9:03:c5:52:68:c5:a6:43:
                    1f:1d:84:36:8d:3c:52:ab:4c:83:2b:88:d0:42:a7:
                    8f:a5:d4:f0:94:54:79:86:dd:98:8e:eb:68:3a:49:
                    f2:fd:6b:43:8b:11:14:fb:87:23:21:42:73:1a:db:
                    e4:9c:10:c0:9c:a5:87:db:52:07:5e:94:25:ed:17:
                    2d:87:3e:69:57:7a:dc:9d:d4:30:bc:7e:f0:0a:0b:
                    e5:3c:bf:ec:af:7d:9c:ff:73:25:c1:83:f1:a3:0d:
                    e4:d0:ee:ec:f9:48:f6:26:03:42:25:0e:0f:6e:a7:
                    39:e1:6c:57:e3:38:d7:ee:b8:2f:72:1c:39:d2:d5:
                    3a:24:8a:7a:a0:75:02:05:d4:de:02:3e:f1:3a:25:
                    3e:dd
                Exponent: 65537 (0x10001)
        X509v3 extensions:
            X509v3 Basic Constraints: 
                CA:FALSE
            X509v3 Subject Key Identifier: 
                CD:57:0D:78:52:95:CC:68:37:47:71:F5:D4:6D:59:7D:5D:D0:2F:8D
            X509v3 Authority Key Identifier: 
                3C:E7:36:3F:17:26:50:E7:59:68:87:AC:0F:0E:5F:76:C6:9E:44:26
            X509v3 Key Usage: 
                Digital Signature, Key Encipherment
            X509v3 Extended Key Usage: 
                TLS Web Client Authentication
            X509v3 CRL Distribution Points: 
                Full Name:
                  URI:http://localhost:3000/static/intermediate.crl

            1.2.3.4.5.6.7.8.1: 
                ..{"role": "admin"}
    Signature Algorithm: sha256WithRSAEncryption
    Signature Value:
        e5:bf:3b:18:03:87:33:20:9b:8f:f6:98:a2:7d:d7:ba:ba:62:
        8b:fc:02:85:1f:dd:8b:b0:4f:90:ac:f2:95:57:78:c2:51:c0:
        c1:88:e3:bd:67:4f:0e:8b:04:a4:8d:8d:81:98:fa:8a:19:92:
        ad:c2:50:c8:33:9e:79:1c:f4:49:ff:2b:5f:e8:84:95:19:61:
        3f:9f:dc:c1:26:65:3c:17:bc:3f:4f:c1:83:86:b3:cb:f7:e6:
        e6:40:f9:83:4b:8d:7c:3b:5d:42:31:13:8b:59:38:0f:4e:28:
        60:13:4b:6b:c8:a0:bb:38:04:a9:39:55:72:71:f7:23:e1:63:
        c2:7d:13:bd:20:4c:25:b6:9d:a8:8d:cb:53:7d:22:cd:68:5a:
        37:c4:df:90:1f:af:56:6f:2a:f4:26:a1:ba:7a:8b:8c:92:2b:
        9f:b0:2f:fb:55:94:67:79:8c:cd:89:95:9d:a5:c3:b8:d2:19:
        1a:db:02:06:1a:b7:3c:c4:0d:06:8c:14:e6:e8:b3:32:ef:27:
        b6:b2:37:b8:87:c7:45:62:47:52:f1:65:b4:b4:53:f7:c6:cf:
        5c:51:15:92:de:1c:05:3e:07:08:6f:6f:ce:14:9b:1f:e6:dd:
        be:1f:c5:64:aa:7f:99:d2:1c:41:1a:d0:a3:65:3c:eb:35:9c:
        dd:b4:c3:2f:03:9b:48:7c:1e:5c:bb:3b:63:71:f9:32:34:bd:
        f7:c4:90:24:22:18:e9:a4:c2:63:b3:11:f1:dc:d1:b2:f7:b1:
        11:2f:d3:ac:4e:b2:cc:c5:89:06:86:c6:a7:50:66:63:b7:b4:
        86:f6:d5:a0:bd:53:e5:8f:b9:58:9f:a2:6d:bb:4e:d1:d4:1c:
        18:d1:dd:26:05:67:01:ac:96:22:f7:9a:4c:eb:8f:bd:e2:49:
        a4:2d:e9:5c:d2:73:75:2c:39:8b:5d:95:80:74:11:41:cf:72:
        36:d4:2a:ed:7f:18:f7:85:ff:7d:62:42:63:6d:bd:90:75:69:
        ce:ed:a1:ae:49:8a:32:39:93:de:68:f9:aa:37:05:30:46:04:
        50:90:6f:20:64:b5:1c:a2:7d:aa:ee:26:f4:bb:16:fc:02:95:
        94:9b:e2:c4:48:4a:cf:80:87:1e:21:e6:f4:6a:c9:25:6e:0e:
        00:a1:ee:df:5d:6f:db:9c:43:87:95:3b:88:9e:b0:f0:43:fc:
        17:28:e7:75:af:8c:0c:f9:43:c5:3e:25:c7:0a:7c:35:89:17:
        7f:1d:07:48:30:2a:87:74:04:93:10:a8:9c:8c:6e:93:3a:a3:
        87:bc:49:10:a1:c2:1f:32:98:71:03:12:5f:e6:65:93:d1:7a:
        6a:f1:b4:0e:09:11:e4:75
-----BEGIN CERTIFICATE-----
MIIExzCCAq+gAwIBAgICEAAwDQYJKoZIhvcNAQELBQAwaDELMAkGA1UEBhMCSU4x
DjAMBgNVBAgMBUJpaGFyMRUwEwYDVQQKDAxEZW1vU2VydmljZXMxFTATBgNVBAsM
DEludGVybWVkaWF0ZTEbMBkGA1UEAwwSRGVtb0ludGVybWVkaWF0ZUNBMB4XDTI2
MDIyMDEwMzE0NVoXDTI3MDIyMDEwMzE0NVowETEPMA0GA1UEAwwGVmlzaGFsMIIB
IjANBgkqhkiG9w0BAQEFAAOCAQ8AMIIBCgKCAQEAj1fSnQN21jCy7fE7RSvqP8lu
a6ySCNibaI+qy7WxTYhgGT9exh4cKBjDq80LK4dnOFjAJ5Ayvbb956RTwwHOD+0L
N45Jasr55zYQ33VUup8A187EJZ6wLKDQOVzIAw6OJS75qsoZP2GTYYqGgwQR+QPF
UmjFpkMfHYQ2jTxSq0yDK4jQQqePpdTwlFR5ht2YjutoOkny/WtDixEU+4cjIUJz
GtvknBDAnKWH21IHXpQl7Rcthz5pV3rcndQwvH7wCgvlPL/sr32c/3MlwYPxow3k
0O7s+Uj2JgNCJQ4Pbqc54WxX4zjX7rgvchw50tU6JIp6oHUCBdTeAj7xOiU+3QID
AQABo4HRMIHOMAkGA1UdEwQCMAAwHQYDVR0OBBYEFM1XDXhSlcxoN0dx9dRtWX1d
0C+NMB8GA1UdIwQYMBaAFDznNj8XJlDnWWiHrA8OX3bGnkQmMAsGA1UdDwQEAwIF
oDATBgNVHSUEDDAKBggrBgEFBQcDAjA+BgNVHR8ENzA1MDOgMaAvhi1odHRwOi8v
bG9jYWxob3N0OjMwMDAvc3RhdGljL2ludGVybWVkaWF0ZS5jcmwwHwYIKgMEBQYH
CAEEEwwReyJyb2xlIjogImFkbWluIn0wDQYJKoZIhvcNAQELBQADggIBAOW/OxgD
hzMgm4/2mKJ917q6Yov8AoUf3YuwT5Cs8pVXeMJRwMGI471nTw6LBKSNjYGY+ooZ
kq3CUMgznnkc9En/K1/ohJUZYT+f3MEmZTwXvD9PwYOGs8v35uZA+YNLjXw7XUIx
E4tZOA9OKGATS2vIoLs4BKk5VXJx9yPhY8J9E70gTCW2naiNy1N9Is1oWjfE35Af
r1ZvKvQmobp6i4ySK5+wL/tVlGd5jM2JlZ2lw7jSGRrbAgYatzzEDQaMFOboszLv
J7ayN7iHx0ViR1LxZbS0U/fGz1xRFZLeHAU+Bwhvb84Umx/m3b4fxWSqf5nSHEEa
0KNlPOs1nN20wy8Dm0h8Hly7O2Nx+TI0vffEkCQiGOmkwmOzEfHc0bL3sREv06xO
sszFiQaGxqdQZmO3tIb21aC9U+WPuVifom27TtHUHBjR3SYFZwGsliL3mkzrj73i
SaQt6VzSc3UsOYtdlYB0EUHPcjbUKu1/GPeF/31iQmNtvZB1ac7toa5JijI5k95o
+ao3BTBGBFCQbyBktRyifaruJvS7FvwClZSb4sRISs+Ahx4h5vRqySVuDgCh7t9d
b9ucQ4eVO4iesPBD/Bco53WvjAz5Q8U+JccKfDWJF38dB0gwKod0BJMQqJyMbpM6
o4e8SRChwh8ymHEDEl/mZZPRemrxtA4JEeR1
-----END CERTIFICATE-----
