Certificate:
    Data:
        Version: 3 (0x2)
        Serial Number: 4097 (0x1001)
        Signature Algorithm: sha256WithRSAEncryption
        Issuer: C=IN, ST=Bihar, O=DemoServices, OU=Intermediate, CN=DemoIntermediateCA
        Validity
            Not Before: Feb 20 11:04:23 2026 GMT
            Not After : Feb 20 11:04:23 2027 GMT
        Subject: CN=Rahul
        Subject Public Key Info:
            Public Key Algorithm: rsaEncryption
                Public-Key: (2048 bit)
                Modulus:
                    00:9b:7f:b0:46:05:2a:20:a3:1f:6a:d6:1c:c6:f3:
                    ab:30:f6:d2:e0:fa:39:43:74:e5:fd:96:22:ea:e1:
                    ef:ca:04:7b:e4:81:72:b2:42:80:90:93:9a:f8:6f:
                    42:8d:f1:1e:b3:8c:34:6e:4f:db:f7:1f:34:8c:4f:
                    01:36:67:cc:cb:d5:68:4c:8c:a2:e2:ba:1d:82:92:
                    e0:2e:32:51:fa:cb:75:ac:83:2c:77:80:8d:27:67:
                    b2:6f:c1:cb:87:05:2c:c5:df:dd:2a:72:6b:e0:c2:
                    8f:b8:84:fe:04:4f:76:a0:82:91:73:25:6e:24:b4:
                    02:8d:74:a1:64:8e:de:cc:32:d1:b5:e1:8c:b9:28:
                    3e:d1:38:76:c4:36:01:d8:4e:eb:1e:3c:ae:62:26:
                    ce:0e:fa:51:d2:10:48:c7:7d:5c:08:cc:09:75:dc:
                    2e:09:fb:77:ca:12:95:dc:c0:3a:8f:47:ae:81:0d:
                    c1:b5:55:2f:5c:ee:e6:98:79:85:42:1b:db:3f:6f:
                    bd:19:ef:f5:79:70:3d:02:26:a3:af:2c:fd:06:5e:
                    c8:71:8a:e2:8f:50:d3:f9:d2:8c:c8:fd:0a:e7:4e:
                    fa:1c:70:8b:4b:7b:c4:c5:fc:de:bd:8f:6a:5f:e7:
                    ce:1c:73:69:8a:9f:e3:7d:28:b7:99:92:09:71:4c:
                    bf:09
                Exponent: 65537 (0x10001)
        X509v3 extensions:
            X509v3 Basic Constraints: 
                CA:FALSE
            X509v3 Subject Key Identifier: 
                39:E5:D1:E4:B5:B7:84:94:19:91:C4:A5:E2:EF:A3:4D:97:E9:C1:7A
            X509v3 Authority Key Identifier: 
                3C:E7:36:3F:17:26:50:E7:59:68:87:AC:0F:0E:5F:76:C6:9E:44:26
            X509v3 Key Usage: 
                Digital Signature, Key Encipherment
            X509v3 Extended Key Usage: 
                TLS Web Client Authentication
            X509v3 CRL Distribution Points: 
                Full Name:
                  URI:http://localhost:3000/static/intermediate.crl

            1.2.3.4.5.6.7.8.1: 
                ..{"role": "admin"}
    Signature Algorithm: sha256WithRSAEncryption
    Signature Value:
        6a:80:a3:37:46:4a:a0:ba:ae:d0:ac:37:f3:3e:a3:59:9d:82:
        f9:6c:58:bd:0f:e4:18:e3:b5:e4:d1:29:34:e7:f7:af:63:71:
        63:5f:94:42:28:7a:04:6a:52:e9:78:4a:59:d9:94:d0:d3:a0:
        cf:4c:0b:b3:db:80:09:d8:98:01:57:1d:da:c7:61:12:7b:f7:
        be:f8:22:71:b8:b7:55:c2:47:05:85:9b:25:9f:c8:99:52:4c:
        7e:d6:56:7e:03:ce:5b:18:b0:5b:18:ca:35:36:7a:ab:e3:0a:
        e9:57:77:33:5e:6d:0a:cf:e8:f4:26:78:fb:4a:90:22:9d:dd:
        7c:ae:d2:08:f9:07:c1:f9:43:2c:8b:35:94:e9:0a:5b:40:4a:
        bf:1c:93:5e:55:b7:e1:c3:5c:64:df:67:6e:b2:34:28:44:b4:
        9c:f9:e1:ff:1b:09:61:2c:50:75:b6:f7:cd:8a:9e:3b:f5:84:
        a8:d9:49:36:f3:e8:d9:d3:cf:bb:a3:41:09:64:f9:2b:1e:b6:
        a7:e4:e5:58:ef:e9:95:9e:b2:03:38:06:9c:80:a8:6d:2a:3b:
        20:05:9c:5d:59:7c:5c:fa:ad:85:72:31:1f:01:9a:ed:5c:0a:
        43:29:c8:b3:88:da:70:74:b3:27:be:a0:ff:5c:24:43:4d:26:
        11:91:95:d9:d6:12:da:38:20:e8:e2:36:70:c4:8a:e9:18:16:
        df:83:94:a2:ca:b5:22:21:fb:04:99:4a:2c:36:90:3f:3f:a2:
        97:50:31:15:78:14:a9:e6:ba:fe:d9:3c:80:39:d4:72:8c:bf:
        d3:de:ad:71:0b:7e:67:30:cc:35:53:a1:54:88:68:60:ea:4a:
        04:13:40:25:02:2b:2c:10:8e:13:29:58:d1:7e:0b:d4:e7:98:
        44:fd:d2:33:6e:5d:f9:c4:5b:10:75:47:e3:24:12:18:fb:d0:
        91:a6:8e:8a:c4:c9:35:a9:03:64:94:5e:8b:d3:ed:97:89:80:
        85:37:1b:de:b8:ec:ff:9c:1a:3e:6c:a2:66:01:ec:cd:4d:a8:
        08:54:54:31:90:6e:94:dc:00:bd:8f:89:92:37:b6:2a:ad:23:
        95:69:d3:01:40:89:be:96:af:8f:39:9b:05:e2:85:ea:91:9e:
        2b:c4:80:b0:63:0a:8f:1c:40:30:f8:ae:d0:37:fc:28:16:03:
        d4:78:1b:4b:34:55:86:c8:bd:e7:fb:91:16:7d:b5:d0:fb:b8:
        c6:48:3c:61:ce:a4:6f:ad:60:56:57:93:56:f2:61:f1:ac:30:
        74:6e:16:24:c6:ba:9e:dd:03:ce:55:9d:d9:73:77:9c:a0:58:
        74:d9:a2:98:f8:45:6c:a8
-----BEGIN CERTIFICATE-----
MIIExjCCAq6gAwIBAgICEAEwDQYJKoZIhvcNAQELBQAwaDELMAkGA1UEBhMCSU4x
DjAMBgNVBAgMBUJpaGFyMRUwEwYDVQQKDAxEZW1vU2VydmljZXMxFTATBgNVBAsM
DEludGVybWVkaWF0ZTEbMBkGA1UEAwwSRGVtb0ludGVybWVkaWF0ZUNBMB4XDTI2
MDIyMDExMDQyM1oXDTI3MDIyMDExMDQyM1owEDEOMAwGA1UEAwwFUmFodWwwggEi
MA0GCSqGSIb3DQEBAQUAA4IBDwAwggEKAoIBAQCbf7BGBSogox9q1hzG86sw9tLg
+jlDdOX9liLq4e/KBHvkgXKyQoCQk5r4b0KN8R6zjDRuT9v3HzSMTwE2Z8zL1WhM
jKLiuh2CkuAuMlH6y3Wsgyx3gI0nZ7JvwcuHBSzF390qcmvgwo+4hP4ET3aggpFz
JW4ktAKNdKFkjt7MMtG14Yy5KD7ROHbENgHYTusePK5iJs4O+lHSEEjHfVwIzAl1
3C4J+3fKEpXcwDqPR66BDcG1VS9c7uaYeYVCG9s/b70Z7/V5cD0CJqOvLP0GXshx
iuKPUNP50ozI/QrnTvoccItLe8TF/N69j2pf584cc2mKn+N9KLeZkglxTL8JAgMB
AAGjgdEwgc4wCQYDVR0TBAIwADAdBgNVHQ4EFgQUOeXR5LW3hJQZkcSl4u+jTZfp
wXowHwYDVR0jBBgwFoAUPOc2PxcmUOdZaIesDw5fdsaeRCYwCwYDVR0PBAQDAgWg
MBMGA1UdJQQMMAoGCCsGAQUFBwMCMD4GA1UdHwQ3MDUwM6AxoC+GLWh0dHA6Ly9s
b2NhbGhvc3Q6MzAwMC9zdGF0aWMvaW50ZXJtZWRpYXRlLmNybDAfBggqAwQFBgcI
AQQTDBF7InJvbGUiOiAiYWRtaW4ifTANBgkqhkiG9w0BAQsFAAOCAgEAaoCjN0ZK
oLqu0Kw38z6jWZ2C+WxYvQ/kGOO15NEpNOf3r2NxY1+UQih6BGpS6XhKWdmU0NOg
z0wLs9uACdiYAVcd2sdhEnv3vvgicbi3VcJHBYWbJZ/ImVJMftZWfgPOWxiwWxjK
NTZ6q+MK6Vd3M15tCs/o9CZ4+0qQIp3dfK7SCPkHwflDLIs1lOkKW0BKvxyTXlW3
4cNcZN9nbrI0KES0nPnh/xsJYSxQdbb3zYqeO/WEqNlJNvPo2dPPu6NBCWT5Kx62
p+TlWO/plZ6yAzgGnICobSo7IAWcXVl8XPqthXIxHwGa7VwKQynIs4jacHSzJ76g
/1wkQ00mEZGV2dYS2jgg6OI2cMSK6RgW34OUosq1IiH7BJlKLDaQPz+il1AxFXgU
qea6/tk8gDnUcoy/096tcQt+ZzDMNVOhVIhoYOpKBBNAJQIrLBCOEylY0X4L1OeY
RP3SM25d+cRbEHVH4yQSGPvQkaaOisTJNakDZJRei9Ptl4mAhTcb3rjs/5waPmyi
ZgHszU2oCFRUMZBulNwAvY+Jkje2Kq0jlWnTAUCJvpavjzmbBeKF6pGeK8SAsGMK
jxxAMPiu0Df8KBYD1HgbSzRVhsi95/uRFn210Pu4xkg8Yc6kb61gVleTVvJh8aww
dG4WJMa6nt0DzlWd2XN3nKBYdNmimPhFbKg=
-----END CERTIFICATE-----
