Certificate:
    Data:
        Version: 3 (0x2)
        Serial Number: 4098 (0x1002)
        Signature Algorithm: sha256WithRSAEncryption
        Issuer: C=IN, ST=Bihar, O=DemoServices, OU=Intermediate, CN=DemoIntermediateCA
        Validity
            Not Before: Mar  6 04:47:57 2026 GMT
            Not After : Mar  6 04:47:57 2027 GMT
        Subject: C=in, ST=karnataka, O=cdac, OU=rise, CN=admin/emailAddress=admin@gmail.com
        Subject Public Key Info:
            Public Key Algorithm: rsaEncryption
                Public-Key: (2048 bit)
                Modulus:
                    00:96:da:47:88:25:ab:48:57:b5:33:31:8c:88:bf:
                    7f:b2:f2:16:80:fd:62:5d:65:c0:f8:68:14:88:0e:
                    f3:de:b8:67:ce:dc:5e:2a:dc:7c:52:0e:0f:44:24:
                    87:1d:b1:13:9c:77:ec:59:c2:f6:60:16:6c:fe:a8:
                    73:3b:75:6e:a5:2c:69:58:e9:4b:df:74:81:c7:94:
                    c4:ca:d5:6a:4d:26:b1:42:5f:df:8b:c4:a6:e5:18:
                    44:b5:7f:a5:1b:de:22:33:44:57:9d:4c:da:bd:6e:
                    67:90:5a:78:16:e4:c1:dc:c8:2a:a5:93:bd:f8:66:
                    52:e9:f8:f4:54:94:2b:dd:80:ba:df:0c:99:db:f3:
                    79:4b:85:c7:c7:20:22:5c:e2:89:ca:a9:41:33:f9:
                    18:4f:1b:41:91:d6:94:57:fb:cf:ec:da:06:bd:84:
                    1d:e9:87:30:6e:ae:6c:f2:86:e8:f3:2d:39:3b:6e:
                    64:d8:4b:c4:ec:3c:c9:55:58:1a:89:73:fc:23:f5:
                    61:1c:a3:51:59:3d:c1:0b:8b:69:6a:8f:93:f7:55:
                    c1:fd:6a:fa:d2:fe:e9:f9:06:14:46:86:29:ee:1f:
                    0c:39:4a:73:cb:7a:d9:53:a1:aa:38:1a:84:ee:bc:
                    6f:22:99:30:e4:a2:de:d4:d7:95:60:01:bb:98:0c:
                    55:39
                Exponent: 65537 (0x10001)
        X509v3 extensions:
            X509v3 Basic Constraints: 
                CA:FALSE
            X509v3 Subject Key Identifier: 
                C8:44:21:F2:3C:AB:04:0C:9B:90:43:75:5D:18:CA:A9:07:E8:F7:CA
            X509v3 Authority Key Identifier: 
                3C:E7:36:3F:17:26:50:E7:59:68:87:AC:0F:0E:5F:76:C6:9E:44:26
            X509v3 Key Usage: 
                Digital Signature, Key Encipherment
            X509v3 Extended Key Usage: 
                TLS Web Client Authentication
            X509v3 CRL Distribution Points: 
                Full Name:
                  URI:http://localhost:3000/static/intermediate.crl

            1.2.3.4.5.6.7.8.1: 
                ..["admin"]
    Signature Algorithm: sha256WithRSAEncryption
    Signature Value:
        e0:0f:52:03:b1:e2:48:05:2d:85:ea:ee:c5:71:e7:bc:fe:69:
        44:a2:1b:e4:52:7b:cb:fa:ed:2d:5f:04:7c:a4:14:d7:8c:c4:
        70:64:34:60:f8:c1:1d:09:26:e4:2f:6e:ad:bf:8d:72:1a:ca:
        fa:3e:89:13:15:92:56:d5:e7:c4:7f:4e:43:ec:fa:25:11:a7:
        f7:73:28:6d:40:66:aa:0f:c5:ad:75:ae:69:80:1b:e2:af:ae:
        a6:17:bf:2c:31:c2:df:7a:3c:57:60:90:b8:bf:a3:ea:f7:50:
        61:7b:ee:f2:4c:c4:d4:f3:7a:6f:7f:cf:fb:1b:47:ef:31:4f:
        59:7b:df:ad:75:7f:9d:35:d4:1e:14:c0:11:63:98:5e:37:72:
        16:48:06:18:d5:f9:3d:64:85:79:43:20:bc:bd:96:2a:43:da:
        83:4f:b1:c8:30:ce:a4:b5:11:ba:b6:8f:79:ba:27:fb:ed:e5:
        e4:70:64:e2:82:7f:09:a5:36:0d:c5:7a:f5:86:01:66:a1:e7:
        45:9d:4a:10:f8:31:db:d1:9b:56:56:50:6a:18:50:f6:a3:1b:
        b0:2c:0b:66:95:41:33:50:06:8b:44:96:7b:ea:1d:53:0d:35:
        bd:c7:6a:ec:29:20:44:4b:f4:55:62:c6:e0:8e:95:78:8b:44:
        f8:bf:bf:23:66:36:e4:53:3c:d6:73:9e:7a:6b:ec:a6:2d:02:
        cf:50:5b:e4:6e:76:ca:05:9d:5d:46:70:15:cd:8d:a3:20:ee:
        b6:ad:b1:bd:5e:09:73:d4:dd:c3:00:fe:a2:14:56:6a:cb:1f:
        91:06:80:4f:7a:06:73:27:04:62:03:42:40:30:6f:8c:c6:e7:
        9e:14:50:70:75:50:b5:d0:29:19:e2:69:ad:68:0f:95:d7:fb:
        33:96:2f:89:36:ab:fe:c2:bb:95:ca:1b:4d:5b:de:4f:44:eb:
        0f:f0:bb:1c:2c:65:fe:fb:df:f9:bc:90:b5:63:92:c0:24:fd:
        16:c1:9a:29:15:71:67:42:15:e3:a3:5d:f8:27:b9:7b:93:85:
        59:28:57:43:28:04:15:ca:6d:ee:7a:43:fb:73:e1:bc:d7:b7:
        85:09:60:e0:dd:81:10:a4:0a:51:4d:bc:71:4a:0e:ba:7b:ed:
        dc:43:51:d6:6f:cc:dd:04:95:df:8a:6d:93:ee:3c:c6:d3:a5:
        f7:b5:ff:03:c9:88:90:69:86:f8:bf:ac:eb:bf:fe:4a:f7:47:
        2f:88:9a:67:6f:00:7d:58:29:ba:65:0b:0d:32:c4:73:20:7f:
        d1:5c:17:fd:26:26:d5:82:99:86:54:95:4a:14:fe:f5:7e:8a:
        f9:5b:39:5b:e7:96:08:4e
-----BEGIN CERTIFICATE-----
MIIFHTCCAwWgAwIBAgICEAIwDQYJKoZIhvcNAQELBQAwaDELMAkGA1UEBhMCSU4x
DjAMBgNVBAgMBUJpaGFyMRUwEwYDVQQKDAxEZW1vU2VydmljZXMxFTATBgNVBAsM
DEludGVybWVkaWF0ZTEbMBkGA1UEAwwSRGVtb0ludGVybWVkaWF0ZUNBMB4XDTI2
MDMwNjA0NDc1N1oXDTI3MDMwNjA0NDc1N1owbzELMAkGA1UEBhMCaW4xEjAQBgNV
BAgMCWthcm5hdGFrYTENMAsGA1UECgwEY2RhYzENMAsGA1UECwwEcmlzZTEOMAwG
A1UEAwwFYWRtaW4xHjAcBgkqhkiG9w0BCQEWD2FkbWluQGdtYWlsLmNvbTCCASIw
DQYJKoZIhvcNAQEBBQADggEPADCCAQoCggEBAJbaR4glq0hXtTMxjIi/f7LyFoD9
Yl1lwPhoFIgO8964Z87cXircfFIOD0Qkhx2xE5x37FnC9mAWbP6oczt1bqUsaVjp
S990gceUxMrVak0msUJf34vEpuUYRLV/pRveIjNEV51M2r1uZ5BaeBbkwdzIKqWT
vfhmUun49FSUK92Aut8MmdvzeUuFx8cgIlziicqpQTP5GE8bQZHWlFf7z+zaBr2E
HemHMG6ubPKG6PMtOTtuZNhLxOw8yVVYGolz/CP1YRyjUVk9wQuLaWqPk/dVwf1q
+tL+6fkGFEaGKe4fDDlKc8t62VOhqjgahO68byKZMOSi3tTXlWABu5gMVTkCAwEA
AaOByTCBxjAJBgNVHRMEAjAAMB0GA1UdDgQWBBTIRCHyPKsEDJuQQ3VdGMqpB+j3
yjAfBgNVHSMEGDAWgBQ85zY/FyZQ51loh6wPDl92xp5EJjALBgNVHQ8EBAMCBaAw
EwYDVR0lBAwwCgYIKwYBBQUHAwIwPgYDVR0fBDcwNTAzoDGgL4YtaHR0cDovL2xv
Y2FsaG9zdDozMDAwL3N0YXRpYy9pbnRlcm1lZGlhdGUuY3JsMBcGCCoDBAUGBwgB
BAsMCVsiYWRtaW4iXTANBgkqhkiG9w0BAQsFAAOCAgEA4A9SA7HiSAUtheruxXHn
vP5pRKIb5FJ7y/rtLV8EfKQU14zEcGQ0YPjBHQkm5C9urb+NchrK+j6JExWSVtXn
xH9OQ+z6JRGn93MobUBmqg/FrXWuaYAb4q+uphe/LDHC33o8V2CQuL+j6vdQYXvu
8kzE1PN6b3/P+xtH7zFPWXvfrXV/nTXUHhTAEWOYXjdyFkgGGNX5PWSFeUMgvL2W
KkPag0+xyDDOpLURuraPebon++3l5HBk4oJ/CaU2DcV69YYBZqHnRZ1KEPgx29Gb
VlZQahhQ9qMbsCwLZpVBM1AGi0SWe+odUw01vcdq7CkgREv0VWLG4I6VeItE+L+/
I2Y25FM81nOeemvspi0Cz1Bb5G52ygWdXUZwFc2NoyDutq2xvV4Jc9TdwwD+ohRW
assfkQaAT3oGcycEYgNCQDBvjMbnnhRQcHVQtdApGeJprWgPldf7M5YviTar/sK7
lcobTVveT0TrD/C7HCxl/vvf+byQtWOSwCT9FsGaKRVxZ0IV46Nd+Ce5e5OFWShX
QygEFcpt7npD+3PhvNe3hQlg4N2BEKQKUU28cUoOunvt3ENR1m/M3QSV34ptk+48
xtOl97X/A8mIkGmG+L+s67/+SvdHL4iaZ28AfVgpumULDTLEcyB/0VwX/SYm1YKZ
hlSVShT+9X6K+Vs5W+eWCE4=
-----END CERTIFICATE-----
