Certificate:
    Data:
        Version: 3 (0x2)
        Serial Number: 4099 (0x1003)
        Signature Algorithm: sha256WithRSAEncryption
        Issuer: C=IN, ST=Bihar, O=DemoServices, OU=Intermediate, CN=DemoIntermediateCA
        Validity
            Not Before: Feb 22 12:43:21 2026 GMT
            Not After : Feb 22 12:43:21 2027 GMT
        Subject: C=IN, ST=Bihar, O=None, OU=None, CN=jhon/emailAddress=2003.v.vishal@gmail.com
        Subject Public Key Info:
            Public Key Algorithm: rsaEncryption
                Public-Key: (2048 bit)
                Modulus:
                    00:99:a8:e7:ea:58:87:e1:5e:49:61:b2:58:a8:44:
                    b5:93:4e:6a:62:60:81:09:87:75:2f:92:f2:72:c3:
                    a9:61:b4:60:14:94:67:41:96:3c:fb:d1:f9:17:0d:
                    ac:ab:13:ab:eb:f2:7d:24:75:15:ef:97:03:09:e4:
                    be:7d:80:72:c6:6e:1e:63:97:74:61:04:a2:db:97:
                    12:a0:4e:c8:d3:64:41:c7:dc:38:2f:60:7b:e7:4c:
                    50:a6:eb:35:fc:5a:a1:e0:ab:d2:35:ce:1a:a2:6a:
                    04:81:aa:d2:b5:aa:9c:83:55:c2:9d:30:eb:cd:99:
                    89:d3:e4:e3:ed:5e:4e:a3:27:d0:3d:82:6a:8f:4f:
                    1b:33:2d:c7:36:fd:75:a7:d2:ab:f8:41:d4:07:e3:
                    8f:e7:df:13:0e:fb:30:4f:eb:c2:2c:51:ab:a1:91:
                    a3:95:b8:22:e8:d6:a9:11:66:ff:b0:da:91:74:85:
                    58:71:c8:a3:d9:dc:c2:4d:4b:1d:5d:92:24:47:22:
                    2d:ef:9f:c0:b3:91:fa:8f:a4:e2:a1:c3:4b:d0:1d:
                    c4:c8:11:6d:20:03:b6:5a:33:b0:14:96:77:4d:10:
                    1c:c1:7c:08:35:a6:95:db:12:82:6c:ea:32:69:99:
                    26:f2:ee:dd:45:c8:19:77:77:4e:8e:20:23:e1:d2:
                    5e:a5
                Exponent: 65537 (0x10001)
        X509v3 extensions:
            X509v3 Basic Constraints: 
                CA:FALSE
            X509v3 Subject Key Identifier: 
                C4:36:9C:18:AE:01:55:2F:40:E4:80:16:11:D2:74:63:95:43:9C:D7
            X509v3 Authority Key Identifier: 
                3C:E7:36:3F:17:26:50:E7:59:68:87:AC:0F:0E:5F:76:C6:9E:44:26
            X509v3 Key Usage: 
                Digital Signature, Key Encipherment
            X509v3 Extended Key Usage: 
                TLS Web Client Authentication
            X509v3 CRL Distribution Points: 
                Full Name:
                  URI:http://localhost:3000/static/intermediate.crl

            1.2.3.4.5.6.7.8.1: 
                ...{"Zero Trust Gateway":"NA","PKI Management":"NA","HSM Operation":"NA","IAM":"NA","Security Analytics":"SOC Admin","Crypto Vault":"NA"}
    Signature Algorithm: sha256WithRSAEncryption
    Signature Value:
        19:b2:f9:f0:2d:57:87:ba:bc:51:d0:03:26:59:bf:f8:6d:e8:
        fd:99:fb:fd:94:49:89:37:16:dd:9d:dc:3f:b6:9e:9f:fd:86:
        c6:f2:50:13:e9:6d:0b:9f:e3:83:54:97:1d:2c:66:6d:a0:76:
        9c:67:f8:62:3a:0d:cc:79:ac:88:61:48:4e:0d:e0:85:a7:90:
        be:24:5d:b0:17:15:31:47:90:aa:b5:0a:a3:5e:29:56:c7:ee:
        20:7d:af:ed:52:78:cf:65:89:d4:3e:36:19:66:80:42:10:85:
        06:53:cb:6b:4d:3a:0f:25:ed:12:8c:b2:03:a8:9b:5d:51:70:
        ad:b3:d2:b6:d8:2a:c1:93:db:1d:00:1f:c0:ee:f1:5b:43:7b:
        64:f6:fc:34:62:73:de:aa:e0:ee:9a:8f:83:b8:9c:1f:ff:ba:
        ad:93:62:51:7e:28:fe:98:ce:8d:58:77:81:e9:8a:b8:e1:84:
        16:fd:c6:6e:e8:c7:d4:bd:a8:22:6d:ec:e8:a7:76:31:c3:27:
        75:fc:53:6b:83:df:b6:40:9a:d8:a4:41:b0:e8:72:d0:9c:86:
        7a:e3:7b:5c:a2:3b:3f:2d:16:8e:bc:20:49:4a:51:fd:55:ce:
        60:44:2e:5e:11:d2:fe:47:e7:c5:56:de:4d:12:9d:e5:0e:fe:
        5c:06:fb:39:27:0a:a2:9c:44:ce:a6:8c:35:7c:b2:b4:38:1d:
        37:d2:16:38:d0:55:8e:dc:d0:28:3e:79:7e:01:c1:3d:e5:bb:
        63:85:fd:28:d2:bf:4c:93:b5:21:f4:20:ae:21:06:a3:a6:24:
        db:5c:c4:1e:4c:8c:39:f4:0c:69:18:f6:77:25:11:b1:58:c5:
        36:36:7e:24:bf:52:5c:5d:a5:19:7c:54:c8:b4:cc:50:93:4a:
        69:71:77:5c:db:1f:ff:ae:ed:cb:98:00:9d:e7:46:69:53:cc:
        ab:b4:b3:fb:84:df:c2:bd:a8:8e:c6:a6:93:af:54:fb:25:9e:
        2e:6f:2a:91:2e:a2:2d:cb:75:ea:86:29:90:ab:64:8b:60:ad:
        ce:a3:40:ef:5c:67:85:1b:ee:ee:e2:2f:aa:1d:55:fd:16:72:
        3a:8e:40:a6:4b:36:b2:c4:d7:63:c4:b0:e5:a0:90:36:9c:c5:
        b8:b6:39:a8:1e:11:dd:34:08:19:31:da:90:50:d1:77:22:ea:
        22:29:7e:76:a8:7c:40:e2:72:57:ad:2c:21:3f:b8:c3:d7:fa:
        b5:cf:fd:d0:ff:55:d6:9a:34:fa:ba:75:f5:de:e8:a7:ba:f7:
        9a:9a:5a:83:13:89:3b:2b:e1:5c:d1:db:87:10:7c:6f:67:6c:
        5f:d1:db:d6:8c:c1:61:fb
-----BEGIN CERTIFICATE-----
MIIFojCCA4qgAwIBAgICEAMwDQYJKoZIhvcNAQELBQAwaDELMAkGA1UEBhMCSU4x
DjAMBgNVBAgMBUJpaGFyMRUwEwYDVQQKDAxEZW1vU2VydmljZXMxFTATBgNVBAsM
DEludGVybWVkaWF0ZTEbMBkGA1UEAwwSRGVtb0ludGVybWVkaWF0ZUNBMB4XDTI2
MDIyMjEyNDMyMVoXDTI3MDIyMjEyNDMyMVowcjELMAkGA1UEBhMCSU4xDjAMBgNV
BAgMBUJpaGFyMQ0wCwYDVQQKDAROb25lMQ0wCwYDVQQLDAROb25lMQ0wCwYDVQQD
DARqaG9uMSYwJAYJKoZIhvcNAQkBFhcyMDAzLnYudmlzaGFsQGdtYWlsLmNvbTCC
ASIwDQYJKoZIhvcNAQEBBQADggEPADCCAQoCggEBAJmo5+pYh+FeSWGyWKhEtZNO
amJggQmHdS+S8nLDqWG0YBSUZ0GWPPvR+RcNrKsTq+vyfSR1Fe+XAwnkvn2AcsZu
HmOXdGEEotuXEqBOyNNkQcfcOC9ge+dMUKbrNfxaoeCr0jXOGqJqBIGq0rWqnINV
wp0w682ZidPk4+1eTqMn0D2Cao9PGzMtxzb9dafSq/hB1Afjj+ffEw77ME/rwixR
q6GRo5W4IujWqRFm/7DakXSFWHHIo9ncwk1LHV2SJEciLe+fwLOR+o+k4qHDS9Ad
xMgRbSADtlozsBSWd00QHMF8CDWmldsSgmzqMmmZJvLu3UXIGXd3To4gI+HSXqUC
AwEAAaOCAUowggFGMAkGA1UdEwQCMAAwHQYDVR0OBBYEFMQ2nBiuAVUvQOSAFhHS
dGOVQ5zXMB8GA1UdIwQYMBaAFDznNj8XJlDnWWiHrA8OX3bGnkQmMAsGA1UdDwQE
AwIFoDATBgNVHSUEDDAKBggrBgEFBQcDAjA+BgNVHR8ENzA1MDOgMaAvhi1odHRw
Oi8vbG9jYWxob3N0OjMwMDAvc3RhdGljL2ludGVybWVkaWF0ZS5jcmwwgZYGCCoD
BAUGBwgBBIGJDIGGeyJaZXJvIFRydXN0IEdhdGV3YXkiOiJOQSIsIlBLSSBNYW5h
Z2VtZW50IjoiTkEiLCJIU00gT3BlcmF0aW9uIjoiTkEiLCJJQU0iOiJOQSIsIlNl
Y3VyaXR5IEFuYWx5dGljcyI6IlNPQyBBZG1pbiIsIkNyeXB0byBWYXVsdCI6Ik5B
In0wDQYJKoZIhvcNAQELBQADggIBABmy+fAtV4e6vFHQAyZZv/ht6P2Z+/2USYk3
Ft2d3D+2np/9hsbyUBPpbQuf44NUlx0sZm2gdpxn+GI6Dcx5rIhhSE4N4IWnkL4k
XbAXFTFHkKq1CqNeKVbH7iB9r+1SeM9lidQ+NhlmgEIQhQZTy2tNOg8l7RKMsgOo
m11RcK2z0rbYKsGT2x0AH8Du8VtDe2T2/DRic96q4O6aj4O4nB//uq2TYlF+KP6Y
zo1Yd4HpirjhhBb9xm7ox9S9qCJt7OindjHDJ3X8U2uD37ZAmtikQbDoctCchnrj
e1yiOz8tFo68IElKUf1VzmBELl4R0v5H58VW3k0SneUO/lwG+zknCqKcRM6mjDV8
srQ4HTfSFjjQVY7c0Cg+eX4BwT3lu2OF/SjSv0yTtSH0IK4hBqOmJNtcxB5MjDn0
DGkY9nclEbFYxTY2fiS/UlxdpRl8VMi0zFCTSmlxd1zbH/+u7cuYAJ3nRmlTzKu0
s/uE38K9qI7GppOvVPslni5vKpEuoi3LdeqGKZCrZItgrc6jQO9cZ4Ub7u7iL6od
Vf0WcjqOQKZLNrLE12PEsOWgkDacxbi2OageEd00CBkx2pBQ0Xci6iIpfnaofEDi
cletLCE/uMPX+rXP/dD/VdaaNPq6dfXe6Ke695qaWoMTiTsr4VzR24cQfG9nbF/R
29aMwWH7
-----END CERTIFICATE-----
