Certificate:
    Data:
        Version: 3 (0x2)
        Serial Number: 4101 (0x1005)
        Signature Algorithm: sha256WithRSAEncryption
        Issuer: C=IN, ST=Bihar, O=DemoServices, OU=Intermediate, CN=DemoIntermediateCA
        Validity
            Not Before: Mar  5 05:47:19 2026 GMT
            Not After : Mar  5 05:47:19 2027 GMT
        Subject: C=IN, ST=karnatak, O=rise, OU=cdac, CN=eleven/emailAddress=vishl@gmail.com
        Subject Public Key Info:
            Public Key Algorithm: rsaEncryption
                Public-Key: (2048 bit)
                Modulus:
                    00:98:85:86:5b:fa:ed:50:0d:7f:75:f0:3e:97:75:
                    56:90:c7:9e:68:90:c8:88:21:9f:1b:cf:cc:04:74:
                    ee:22:69:ee:76:ff:cb:f5:68:ba:19:c8:ca:b4:37:
                    db:b8:ce:b2:e4:1a:20:08:8d:4f:9d:ad:ab:1b:a5:
                    a7:1e:bc:7c:8d:64:1c:13:85:ab:b8:97:72:98:52:
                    a1:ad:8c:d0:3c:1f:b6:0c:cb:56:09:15:a4:1a:d1:
                    36:8e:22:b5:c1:4c:d7:1d:14:4d:4a:d3:e2:0d:fd:
                    07:61:e0:45:5e:62:89:15:cc:9b:8c:83:1c:f7:c8:
                    94:6f:ea:22:cd:42:92:cc:fb:6c:58:f7:35:66:fe:
                    74:74:20:da:b5:dc:2c:a2:49:8d:0f:96:3b:09:c8:
                    bb:a7:52:0a:e0:60:d1:a8:3a:58:48:fb:7b:f1:68:
                    7f:ee:d9:95:8c:87:ad:79:d1:79:65:c5:9d:15:c4:
                    23:0d:52:b0:75:88:ea:a3:de:44:48:34:40:6c:8f:
                    ba:d9:ab:5d:9f:a7:1a:88:63:b2:83:01:00:c3:bf:
                    76:9a:bd:1f:21:c9:ff:b5:15:fe:3f:69:31:35:e9:
                    43:0b:47:75:35:cd:13:a5:28:b4:43:a3:d3:64:47:
                    0c:28:94:9c:62:74:aa:53:7b:41:73:85:3c:88:d1:
                    de:f5
                Exponent: 65537 (0x10001)
        X509v3 extensions:
            X509v3 Basic Constraints: 
                CA:FALSE
            X509v3 Subject Key Identifier: 
                95:B7:E1:F9:A2:71:05:BC:66:EE:A4:89:D8:55:7F:75:B2:F8:76:3E
            X509v3 Authority Key Identifier: 
                3C:E7:36:3F:17:26:50:E7:59:68:87:AC:0F:0E:5F:76:C6:9E:44:26
            X509v3 Key Usage: 
                Digital Signature, Key Encipherment
            X509v3 Extended Key Usage: 
                TLS Web Client Authentication
            X509v3 CRL Distribution Points: 
                Full Name:
                  URI:http://localhost:3000/static/intermediate.crl

            1.2.3.4.5.6.7.8.1: 
                ...{"Zero Trust Gateway":"Policy Admin","PKI Management":"Cert Operator","HSM Operation":"NA","IAM":"NA","Security Analytics":"SOC Analyst","Crypto Vault":"NA"}
    Signature Algorithm: sha256WithRSAEncryption
    Signature Value:
        e0:65:de:36:9a:ee:cc:18:ea:91:16:62:ba:9b:3c:a9:40:f2:
        ba:a2:cf:e5:a8:67:97:0a:87:35:77:d7:19:ba:62:ae:2c:79:
        0e:68:ee:35:46:d2:fb:2c:91:a2:46:1e:4e:c1:b5:ea:6f:d5:
        d9:31:48:57:7a:1d:00:32:df:64:c2:4b:73:7f:fb:c8:63:b1:
        0e:cf:41:38:03:17:3d:da:57:43:a9:a8:05:1a:5b:4a:15:20:
        05:da:8f:72:59:50:d0:60:ea:43:a4:8c:0c:ad:bc:6e:1c:47:
        9b:eb:33:1a:5d:3a:2a:76:57:2d:53:23:a4:78:57:61:1c:b5:
        17:c5:8f:88:72:83:b2:e7:c7:b6:f5:6e:8d:5d:06:c3:e5:19:
        a6:f7:b1:3e:73:67:c3:20:ff:97:d3:fe:9c:43:95:b8:7a:75:
        78:25:f8:13:4e:71:ca:85:0b:d5:eb:c7:6a:1e:cc:82:51:33:
        95:c1:4c:b2:c1:1c:4d:46:32:a5:fb:7f:5f:32:a8:96:b7:6c:
        b7:41:d2:ec:3c:ed:ab:84:96:c8:5a:5d:7d:ae:aa:39:e6:40:
        ac:75:11:53:16:1d:6f:e2:8c:0a:b7:c1:13:11:0f:a4:4d:d8:
        ce:cd:30:e7:33:24:a1:65:20:37:a6:d8:3e:75:cd:ce:44:6a:
        0d:0f:94:8d:b1:b4:6c:dd:64:7b:40:f4:8a:52:b0:e1:2d:76:
        75:b5:68:a4:cb:b9:01:a3:01:c1:71:b7:60:5d:0c:51:09:20:
        3b:d9:80:1b:c9:45:e3:75:90:89:6f:ba:ff:b8:52:2c:19:15:
        72:71:43:eb:31:48:5d:51:3d:d5:76:a7:95:2e:c7:d4:bc:4e:
        ff:63:2b:67:aa:00:6a:54:b7:68:5d:f8:3f:2b:09:ef:8d:e2:
        9b:0f:48:61:fd:32:33:12:b0:28:27:79:51:e3:87:40:f2:6c:
        cc:b3:ad:68:78:08:aa:b8:97:60:d9:d5:ad:d6:4c:d8:2e:57:
        03:77:2b:3e:36:eb:8a:90:d7:1c:9a:7e:c1:d0:57:a3:f9:00:
        84:9d:36:17:98:4d:e9:2a:16:8c:66:3e:7a:2a:e3:10:4c:16:
        de:03:8d:96:df:ab:73:bd:1c:50:d6:b1:05:e8:48:83:a4:03:
        1d:7d:29:da:13:3a:41:bd:9e:ec:ef:3c:fd:da:42:ff:21:a7:
        c7:d5:8f:12:f0:05:34:2c:d5:63:51:f7:7d:fe:23:de:17:fd:
        ff:35:84:80:ec:bd:b2:ae:8f:d7:c4:a9:96:b8:ca:d0:f2:9d:
        69:de:4e:dc:66:76:a2:7c:78:71:27:e4:fa:70:9e:e7:7d:58:
        14:94:06:34:6e:0f:d4:56
-----BEGIN CERTIFICATE-----
MIIFtjCCA56gAwIBAgICEAUwDQYJKoZIhvcNAQELBQAwaDELMAkGA1UEBhMCSU4x
DjAMBgNVBAgMBUJpaGFyMRUwEwYDVQQKDAxEZW1vU2VydmljZXMxFTATBgNVBAsM
DEludGVybWVkaWF0ZTEbMBkGA1UEAwwSRGVtb0ludGVybWVkaWF0ZUNBMB4XDTI2
MDMwNTA1NDcxOVoXDTI3MDMwNTA1NDcxOVowbzELMAkGA1UEBhMCSU4xETAPBgNV
BAgMCGthcm5hdGFrMQ0wCwYDVQQKDARyaXNlMQ0wCwYDVQQLDARjZGFjMQ8wDQYD
VQQDDAZlbGV2ZW4xHjAcBgkqhkiG9w0BCQEWD3Zpc2hsQGdtYWlsLmNvbTCCASIw
DQYJKoZIhvcNAQEBBQADggEPADCCAQoCggEBAJiFhlv67VANf3XwPpd1VpDHnmiQ
yIghnxvPzAR07iJp7nb/y/VouhnIyrQ327jOsuQaIAiNT52tqxulpx68fI1kHBOF
q7iXcphSoa2M0DwftgzLVgkVpBrRNo4itcFM1x0UTUrT4g39B2HgRV5iiRXMm4yD
HPfIlG/qIs1Cksz7bFj3NWb+dHQg2rXcLKJJjQ+WOwnIu6dSCuBg0ag6WEj7e/Fo
f+7ZlYyHrXnReWXFnRXEIw1SsHWI6qPeREg0QGyPutmrXZ+nGohjsoMBAMO/dpq9
HyHJ/7UV/j9pMTXpQwtHdTXNE6UotEOj02RHDCiUnGJ0qlN7QXOFPIjR3vUCAwEA
AaOCAWEwggFdMAkGA1UdEwQCMAAwHQYDVR0OBBYEFJW34fmicQW8Zu6kidhVf3Wy
+HY+MB8GA1UdIwQYMBaAFDznNj8XJlDnWWiHrA8OX3bGnkQmMAsGA1UdDwQEAwIF
oDATBgNVHSUEDDAKBggrBgEFBQcDAjA+BgNVHR8ENzA1MDOgMaAvhi1odHRwOi8v
bG9jYWxob3N0OjMwMDAvc3RhdGljL2ludGVybWVkaWF0ZS5jcmwwga0GCCoDBAUG
BwgBBIGgDIGdeyJaZXJvIFRydXN0IEdhdGV3YXkiOiJQb2xpY3kgQWRtaW4iLCJQ
S0kgTWFuYWdlbWVudCI6IkNlcnQgT3BlcmF0b3IiLCJIU00gT3BlcmF0aW9uIjoi
TkEiLCJJQU0iOiJOQSIsIlNlY3VyaXR5IEFuYWx5dGljcyI6IlNPQyBBbmFseXN0
IiwiQ3J5cHRvIFZhdWx0IjoiTkEifTANBgkqhkiG9w0BAQsFAAOCAgEA4GXeNpru
zBjqkRZiups8qUDyuqLP5ahnlwqHNXfXGbpirix5DmjuNUbS+yyRokYeTsG16m/V
2TFIV3odADLfZMJLc3/7yGOxDs9BOAMXPdpXQ6moBRpbShUgBdqPcllQ0GDqQ6SM
DK28bhxHm+szGl06KnZXLVMjpHhXYRy1F8WPiHKDsufHtvVujV0Gw+UZpvexPnNn
wyD/l9P+nEOVuHp1eCX4E05xyoUL1evHah7MglEzlcFMssEcTUYypft/XzKolrds
t0HS7Dztq4SWyFpdfa6qOeZArHURUxYdb+KMCrfBExEPpE3Yzs0w5zMkoWUgN6bY
PnXNzkRqDQ+UjbG0bN1ke0D0ilKw4S12dbVopMu5AaMBwXG3YF0MUQkgO9mAG8lF
43WQiW+6/7hSLBkVcnFD6zFIXVE91XanlS7H1LxO/2MrZ6oAalS3aF34PysJ743i
mw9IYf0yMxKwKCd5UeOHQPJszLOtaHgIqriXYNnVrdZM2C5XA3crPjbripDXHJp+
wdBXo/kAhJ02F5hN6SoWjGY+eirjEEwW3gONlt+rc70cUNaxBehIg6QDHX0p2hM6
Qb2e7O88/dpC/yGnx9WPEvAFNCzVY1H3ff4j3hf9/zWEgOy9sq6P18SplrjK0PKd
ad5O3GZ2onx4cSfk+nCe531YFJQGNG4P1FY=
-----END CERTIFICATE-----
