Certificate:
    Data:
        Version: 3 (0x2)
        Serial Number: 4102 (0x1006)
        Signature Algorithm: sha256WithRSAEncryption
        Issuer: C=IN, ST=Bihar, O=DemoServices, OU=Intermediate, CN=DemoIntermediateCA
        Validity
            Not Before: Feb 26 05:42:42 2026 GMT
            Not After : Feb 26 05:42:42 2027 GMT
        Subject: C=IN, ST=Bihar, O=None, OU=None, CN=rickeye/emailAddress=2003.v.vishal@gmail.com
        Subject Public Key Info:
            Public Key Algorithm: rsaEncryption
                Public-Key: (2048 bit)
                Modulus:
                    00:8c:bc:b7:cf:ac:53:85:95:05:54:ca:9e:b7:c3:
                    a9:bb:50:b8:a5:f1:1f:8a:9b:46:b0:ae:2a:56:52:
                    be:54:53:3e:b2:7d:f6:93:50:72:82:ed:18:03:c5:
                    fe:6c:fa:82:d9:0d:f5:de:ea:63:40:25:b9:f6:e2:
                    10:95:68:19:48:41:ef:8a:8b:2e:17:b7:25:fc:05:
                    42:c8:c2:d6:17:ce:67:a5:52:5d:23:4d:8f:d1:63:
                    13:e3:9f:ed:07:a6:72:0f:b4:f9:ca:e6:3e:00:cd:
                    8d:1f:b5:f3:be:0b:41:06:6f:8b:aa:b7:5f:40:3c:
                    d0:4b:a9:3a:e4:48:1a:3d:a3:0b:42:89:20:c7:e3:
                    22:d7:1e:3a:d3:cd:90:eb:84:e7:60:e9:ef:b4:68:
                    35:58:ff:c5:28:65:fb:8d:2e:63:62:ed:44:b4:06:
                    0f:d4:b0:ae:cf:43:ec:bf:28:c3:19:5e:20:2a:28:
                    b5:e8:ab:35:bc:18:dd:f0:d2:62:4b:cc:2c:b6:40:
                    ad:da:6d:c2:3e:fb:c7:c6:1c:98:6b:ab:81:6a:04:
                    f3:ca:d7:e7:bc:94:56:f3:2f:03:3c:6d:a8:25:52:
                    db:a8:c7:11:e1:ac:bf:98:92:c1:9d:a6:3a:e3:39:
                    7b:be:95:1b:73:99:7b:23:21:5f:c8:15:6b:e5:22:
                    c6:fd
                Exponent: 65537 (0x10001)
        X509v3 extensions:
            X509v3 Basic Constraints: 
                CA:FALSE
            X509v3 Subject Key Identifier: 
                02:35:A8:26:8B:0B:C2:62:38:CE:D5:14:86:6A:C0:DE:E0:A8:AD:88
            X509v3 Authority Key Identifier: 
                3C:E7:36:3F:17:26:50:E7:59:68:87:AC:0F:0E:5F:76:C6:9E:44:26
            X509v3 Key Usage: 
                Digital Signature, Key Encipherment
            X509v3 Extended Key Usage: 
                TLS Web Client Authentication
            X509v3 CRL Distribution Points: 
                Full Name:
                  URI:http://localhost:3000/static/intermediate.crl

            1.2.3.4.5.6.7.8.1: 
                ...{"Zero Trust Gateway":"NA","PKI Management":"NA","HSM Operation":"NA","IAM":"NA","Security Analytics":"NA","Crypto Vault":"Secret Operator"}
    Signature Algorithm: sha256WithRSAEncryption
    Signature Value:
        2e:8f:50:0b:c7:c9:4e:b4:98:b4:42:cf:89:b7:d1:3c:fa:1e:
        a8:25:1c:da:41:c2:0e:13:cd:93:d4:11:de:d3:06:5f:a1:fc:
        93:83:10:e2:f0:f3:50:72:f1:98:66:83:6d:c2:89:78:22:d5:
        58:17:e9:f9:82:d4:34:da:f7:41:01:38:bb:5e:a1:2e:b7:55:
        40:32:19:b8:76:07:f1:00:55:db:23:b7:e9:e9:1d:2f:4a:e2:
        5e:85:06:8d:24:4f:fa:ce:9e:eb:fd:3d:c9:9d:48:a9:ae:e8:
        9f:34:65:69:bd:2a:20:f2:b6:91:6c:67:18:b8:d1:55:dd:1d:
        1b:fd:b4:05:a8:dc:aa:c7:9f:bc:1d:5d:d5:36:f2:3d:51:c5:
        4f:08:73:48:33:d8:12:34:dc:2b:74:32:a7:20:d0:af:bb:3e:
        4f:1e:f3:ac:a9:e2:f0:02:03:47:0d:d1:d5:75:3a:d8:f0:d5:
        65:d1:4d:dc:19:50:c2:f6:33:bb:3b:48:80:18:02:ce:e5:9e:
        da:50:e7:66:d7:67:d3:77:75:8d:b3:38:54:db:43:3c:37:d0:
        d3:dc:30:41:e1:08:c9:34:c7:4d:1b:a4:04:5a:66:58:ea:ce:
        73:af:8e:3f:c3:30:60:bf:93:91:88:4a:e5:59:b0:57:46:d3:
        69:4b:05:21:5c:4d:7d:12:51:d8:6f:e8:de:e4:21:c6:00:07:
        7f:45:61:36:2e:55:53:59:87:cd:5b:f3:98:26:9f:ce:62:45:
        bc:7a:b0:c6:a4:0f:75:6d:ed:79:76:15:d2:95:3b:7c:73:bc:
        7b:5e:8d:c9:d7:e1:f6:f2:d6:59:7d:9e:ae:8d:97:3b:bd:48:
        fc:51:3b:16:5d:d5:bd:b1:30:ca:9d:b3:ac:70:39:46:29:9b:
        f9:b2:b5:af:76:9d:29:fa:84:a3:77:f0:06:f4:1f:97:f1:c3:
        32:67:9d:02:04:80:21:53:38:da:f4:b1:11:a5:18:11:7f:09:
        ab:16:00:f8:01:78:d6:99:f7:56:f4:d4:1b:f9:98:be:ae:ea:
        98:2e:71:3d:77:e6:a9:01:ce:5b:ad:fe:4d:69:d9:02:65:69:
        eb:5a:ef:57:ce:98:e1:3a:25:58:68:15:61:a6:85:d7:68:f9:
        41:4e:1b:f1:c7:e8:19:51:3a:c8:a3:c3:90:96:92:4d:d2:d9:
        03:e6:08:6a:34:f3:f4:da:36:e7:0f:94:c6:15:24:b0:27:ae:
        c7:cd:14:05:63:73:00:1e:f9:e1:30:7b:06:11:c5:b6:25:c2:
        1a:b8:bb:5c:5d:7b:62:52:5d:6a:85:24:22:3c:2b:fc:0c:8b:
        48:d2:02:bf:cb:7c:6d:c0
-----BEGIN CERTIFICATE-----
MIIFqzCCA5OgAwIBAgICEAYwDQYJKoZIhvcNAQELBQAwaDELMAkGA1UEBhMCSU4x
DjAMBgNVBAgMBUJpaGFyMRUwEwYDVQQKDAxEZW1vU2VydmljZXMxFTATBgNVBAsM
DEludGVybWVkaWF0ZTEbMBkGA1UEAwwSRGVtb0ludGVybWVkaWF0ZUNBMB4XDTI2
MDIyNjA1NDI0MloXDTI3MDIyNjA1NDI0MlowdTELMAkGA1UEBhMCSU4xDjAMBgNV
BAgMBUJpaGFyMQ0wCwYDVQQKDAROb25lMQ0wCwYDVQQLDAROb25lMRAwDgYDVQQD
DAdyaWNrZXllMSYwJAYJKoZIhvcNAQkBFhcyMDAzLnYudmlzaGFsQGdtYWlsLmNv
bTCCASIwDQYJKoZIhvcNAQEBBQADggEPADCCAQoCggEBAIy8t8+sU4WVBVTKnrfD
qbtQuKXxH4qbRrCuKlZSvlRTPrJ99pNQcoLtGAPF/mz6gtkN9d7qY0AlufbiEJVo
GUhB74qLLhe3JfwFQsjC1hfOZ6VSXSNNj9FjE+Of7Qemcg+0+crmPgDNjR+1874L
QQZvi6q3X0A80EupOuRIGj2jC0KJIMfjItceOtPNkOuE52Dp77RoNVj/xShl+40u
Y2LtRLQGD9Swrs9D7L8owxleICooteirNbwY3fDSYkvMLLZArdptwj77x8YcmGur
gWoE88rX57yUVvMvAzxtqCVS26jHEeGsv5iSwZ2mOuM5e76VG3OZeyMhX8gVa+Ui
xv0CAwEAAaOCAVAwggFMMAkGA1UdEwQCMAAwHQYDVR0OBBYEFAI1qCaLC8JiOM7V
FIZqwN7gqK2IMB8GA1UdIwQYMBaAFDznNj8XJlDnWWiHrA8OX3bGnkQmMAsGA1Ud
DwQEAwIFoDATBgNVHSUEDDAKBggrBgEFBQcDAjA+BgNVHR8ENzA1MDOgMaAvhi1o
dHRwOi8vbG9jYWxob3N0OjMwMDAvc3RhdGljL2ludGVybWVkaWF0ZS5jcmwwgZwG
CCoDBAUGBwgBBIGPDIGMeyJaZXJvIFRydXN0IEdhdGV3YXkiOiJOQSIsIlBLSSBN
YW5hZ2VtZW50IjoiTkEiLCJIU00gT3BlcmF0aW9uIjoiTkEiLCJJQU0iOiJOQSIs
IlNlY3VyaXR5IEFuYWx5dGljcyI6Ik5BIiwiQ3J5cHRvIFZhdWx0IjoiU2VjcmV0
IE9wZXJhdG9yIn0wDQYJKoZIhvcNAQELBQADggIBAC6PUAvHyU60mLRCz4m30Tz6
HqglHNpBwg4TzZPUEd7TBl+h/JODEOLw81By8Zhmg23CiXgi1VgX6fmC1DTa90EB
OLteoS63VUAyGbh2B/EAVdsjt+npHS9K4l6FBo0kT/rOnuv9PcmdSKmu6J80ZWm9
KiDytpFsZxi40VXdHRv9tAWo3KrHn7wdXdU28j1RxU8Ic0gz2BI03Ct0Mqcg0K+7
Pk8e86yp4vACA0cN0dV1Otjw1WXRTdwZUML2M7s7SIAYAs7lntpQ52bXZ9N3dY2z
OFTbQzw30NPcMEHhCMk0x00bpARaZljqznOvjj/DMGC/k5GISuVZsFdG02lLBSFc
TX0SUdhv6N7kIcYAB39FYTYuVVNZh81b85gmn85iRbx6sMakD3Vt7Xl2FdKVO3xz
vHtejcnX4fby1ll9nq6Nlzu9SPxROxZd1b2xMMqds6xwOUYpm/myta92nSn6hKN3
8Ab0H5fxwzJnnQIEgCFTONr0sRGlGBF/CasWAPgBeNaZ91b01Bv5mL6u6pgucT13
5qkBzlut/k1p2QJlaeta71fOmOE6JVhoFWGmhddo+UFOG/HH6BlROsijw5CWkk3S
2QPmCGo08/TaNucPlMYVJLAnrsfNFAVjcwAe+eEwewYRxbYlwhq4u1xde2JSXWqF
JCI8K/wMi0jSAr/LfG3A
-----END CERTIFICATE-----
