Certificate:
    Data:
        Version: 3 (0x2)
        Serial Number: 4102 (0x1006)
        Signature Algorithm: sha256WithRSAEncryption
        Issuer: C=IN, ST=Bihar, O=DemoServices, OU=Intermediate, CN=DemoIntermediateCA
        Validity
            Not Before: Mar  5 05:49:54 2026 GMT
            Not After : Mar  5 05:49:54 2027 GMT
        Subject: C=IN, ST=karnataka, O=cdac, OU=rise, CN=twelve/emailAddress=twlever@gmail.com
        Subject Public Key Info:
            Public Key Algorithm: rsaEncryption
                Public-Key: (2048 bit)
                Modulus:
                    00:89:05:ec:a7:10:26:34:a1:87:cb:fa:a0:84:dc:
                    ba:f0:6a:0d:9a:1c:7f:c5:5d:51:f4:86:8d:c5:21:
                    0f:67:72:d4:da:8b:30:6d:df:36:49:4f:ec:dd:fb:
                    e6:1a:5a:e1:c0:48:2c:b1:d4:7e:b2:24:85:85:bc:
                    fc:bd:4b:11:4e:76:bc:1e:66:4a:ee:fb:19:f7:85:
                    fc:44:23:67:63:2d:df:10:d6:9e:2d:c0:46:8e:b2:
                    30:3a:d0:f7:a3:d3:9f:2f:70:9e:d1:25:42:2f:d1:
                    16:ac:0d:fd:7e:0d:a8:d0:7f:1a:97:4b:67:82:9e:
                    c3:ec:45:44:82:e9:44:2d:fd:69:16:9b:dc:60:3a:
                    42:3a:d9:c9:89:94:1b:5c:ff:57:5e:e7:68:07:b1:
                    9b:a1:f3:c4:23:23:a3:43:58:d0:a3:79:4b:8b:ee:
                    4c:a1:e4:a3:d4:dd:f6:33:ec:e8:ff:36:3a:4f:c9:
                    93:dc:91:de:5d:e2:5b:3a:58:56:c3:69:46:aa:6e:
                    35:85:02:4f:f3:c9:b2:6d:5b:97:55:ae:61:38:ad:
                    24:44:48:13:31:7c:b7:de:50:cd:03:a8:94:fc:e1:
                    fa:03:8e:84:13:2f:21:e5:12:2a:05:52:e2:39:61:
                    71:b2:a2:93:5a:42:a1:c1:dd:f5:8d:85:8b:d4:ab:
                    9b:bd
                Exponent: 65537 (0x10001)
        X509v3 extensions:
            X509v3 Basic Constraints: 
                CA:FALSE
            X509v3 Subject Key Identifier: 
                6A:C8:31:87:0B:A7:32:B7:E7:5D:30:2A:60:F4:00:44:B3:36:ED:7F
            X509v3 Authority Key Identifier: 
                3C:E7:36:3F:17:26:50:E7:59:68:87:AC:0F:0E:5F:76:C6:9E:44:26
            X509v3 Key Usage: 
                Digital Signature, Key Encipherment
            X509v3 Extended Key Usage: 
                TLS Web Client Authentication
            X509v3 CRL Distribution Points: 
                Full Name:
                  URI:http://localhost:3000/static/intermediate.crl

            1.2.3.4.5.6.7.8.1: 
                ...{"Zero Trust Gateway":"NA","PKI Management":"Cert Operator","HSM Operation":"NA","IAM":"NA","Security Analytics":"NA","Crypto Vault":"NA"}
    Signature Algorithm: sha256WithRSAEncryption
    Signature Value:
        99:66:c8:2e:4d:1b:75:e8:b7:60:f2:32:46:51:80:1c:15:9c:
        fb:f2:39:ab:ff:ff:fe:f6:5d:fc:43:98:eb:5f:9c:11:21:f5:
        21:6b:40:e5:70:9d:3b:3e:a7:27:2f:9c:10:c2:cb:b1:06:4b:
        5c:7b:90:cc:98:3c:7d:2e:b1:53:f4:79:70:05:5d:a6:54:3f:
        af:98:8e:d3:9d:3c:d7:a5:30:7d:eb:b4:c5:cd:0f:50:8c:bd:
        99:90:59:7d:1f:ca:ad:19:51:ba:1d:9b:c6:64:bd:bf:ba:51:
        c6:46:91:60:b7:12:3c:33:8e:b3:ea:e7:19:1a:18:86:b3:d5:
        fa:a2:17:be:53:cb:e7:52:14:fa:a9:14:32:bf:ed:f1:e8:71:
        82:d3:2b:d0:f0:a5:f1:1e:79:ab:87:98:9f:72:87:24:a3:87:
        4b:d1:73:71:31:61:bc:be:88:a3:e1:13:fc:26:a2:ec:47:dd:
        59:4e:9e:ce:1f:d7:81:04:6b:48:95:c6:dc:49:b3:a3:1d:50:
        f6:43:cd:4f:71:fb:45:86:d0:4f:2a:09:69:f1:37:db:f5:87:
        df:10:8e:f4:75:b0:61:1a:d1:85:87:1b:96:61:eb:0f:ad:b3:
        28:90:e9:7a:02:63:87:1b:89:f4:43:83:7d:a2:f7:c0:a8:11:
        4a:4d:14:35:9b:fc:62:2f:46:98:85:1e:e0:49:ed:2c:6c:e9:
        c6:64:5a:a8:f3:28:a8:8d:09:e7:5d:f0:d8:54:97:77:92:85:
        2c:df:85:b0:d9:32:43:c3:4c:3a:8d:6f:8f:e1:a0:65:79:d1:
        a8:61:01:d8:98:cc:22:56:04:13:ab:5f:a1:d6:ba:0f:42:0c:
        cc:87:54:5e:cc:fe:14:c1:9b:d9:89:aa:8e:01:44:41:8c:90:
        f6:f0:5a:40:40:56:e8:bc:55:27:49:78:44:09:4a:ef:21:b0:
        68:f0:57:8a:ea:a7:13:93:d3:b0:f9:e3:ba:75:a9:27:46:48:
        0b:a8:f4:40:3e:09:e3:01:38:a4:cc:0e:dc:08:2e:a8:86:b4:
        8a:d3:d6:04:0a:90:fc:4e:ca:89:12:ec:6f:38:ec:61:58:95:
        d8:51:d7:a3:bb:f5:f5:c0:be:4d:46:0f:26:6f:c6:05:b6:d7:
        80:df:d9:99:ef:93:51:bd:09:f0:0b:eb:0c:18:99:9a:c8:ba:
        4e:c3:4e:85:3c:a6:fc:29:b7:0e:3a:a5:c5:e6:c8:2e:7b:56:
        a9:d6:d5:2c:57:d5:a3:83:b1:de:47:c7:10:b7:32:98:c2:db:
        86:f8:3e:47:21:ec:52:62:da:bb:80:2c:f0:f3:2b:04:cc:bb:
        db:13:86:41:e6:5d:c4:8d
-----BEGIN CERTIFICATE-----
MIIFpjCCA46gAwIBAgICEAYwDQYJKoZIhvcNAQELBQAwaDELMAkGA1UEBhMCSU4x
DjAMBgNVBAgMBUJpaGFyMRUwEwYDVQQKDAxEZW1vU2VydmljZXMxFTATBgNVBAsM
DEludGVybWVkaWF0ZTEbMBkGA1UEAwwSRGVtb0ludGVybWVkaWF0ZUNBMB4XDTI2
MDMwNTA1NDk1NFoXDTI3MDMwNTA1NDk1NFowcjELMAkGA1UEBhMCSU4xEjAQBgNV
BAgMCWthcm5hdGFrYTENMAsGA1UECgwEY2RhYzENMAsGA1UECwwEcmlzZTEPMA0G
A1UEAwwGdHdlbHZlMSAwHgYJKoZIhvcNAQkBFhF0d2xldmVyQGdtYWlsLmNvbTCC
ASIwDQYJKoZIhvcNAQEBBQADggEPADCCAQoCggEBAIkF7KcQJjShh8v6oITcuvBq
DZocf8VdUfSGjcUhD2dy1NqLMG3fNklP7N375hpa4cBILLHUfrIkhYW8/L1LEU52
vB5mSu77GfeF/EQjZ2Mt3xDWni3ARo6yMDrQ96PTny9wntElQi/RFqwN/X4NqNB/
GpdLZ4Kew+xFRILpRC39aRab3GA6QjrZyYmUG1z/V17naAexm6HzxCMjo0NY0KN5
S4vuTKHko9Td9jPs6P82Ok/Jk9yR3l3iWzpYVsNpRqpuNYUCT/PJsm1bl1WuYTit
JERIEzF8t95QzQOolPzh+gOOhBMvIeUSKgVS4jlhcbKik1pCocHd9Y2Fi9Srm70C
AwEAAaOCAU4wggFKMAkGA1UdEwQCMAAwHQYDVR0OBBYEFGrIMYcLpzK3510wKmD0
AESzNu1/MB8GA1UdIwQYMBaAFDznNj8XJlDnWWiHrA8OX3bGnkQmMAsGA1UdDwQE
AwIFoDATBgNVHSUEDDAKBggrBgEFBQcDAjA+BgNVHR8ENzA1MDOgMaAvhi1odHRw
Oi8vbG9jYWxob3N0OjMwMDAvc3RhdGljL2ludGVybWVkaWF0ZS5jcmwwgZoGCCoD
BAUGBwgBBIGNDIGKeyJaZXJvIFRydXN0IEdhdGV3YXkiOiJOQSIsIlBLSSBNYW5h
Z2VtZW50IjoiQ2VydCBPcGVyYXRvciIsIkhTTSBPcGVyYXRpb24iOiJOQSIsIklB
TSI6Ik5BIiwiU2VjdXJpdHkgQW5hbHl0aWNzIjoiTkEiLCJDcnlwdG8gVmF1bHQi
OiJOQSJ9MA0GCSqGSIb3DQEBCwUAA4ICAQCZZsguTRt16Ldg8jJGUYAcFZz78jmr
///+9l38Q5jrX5wRIfUha0DlcJ07PqcnL5wQwsuxBktce5DMmDx9LrFT9HlwBV2m
VD+vmI7TnTzXpTB967TFzQ9QjL2ZkFl9H8qtGVG6HZvGZL2/ulHGRpFgtxI8M46z
6ucZGhiGs9X6ohe+U8vnUhT6qRQyv+3x6HGC0yvQ8KXxHnmrh5ifcocko4dL0XNx
MWG8voij4RP8JqLsR91ZTp7OH9eBBGtIlcbcSbOjHVD2Q81PcftFhtBPKglp8Tfb
9YffEI70dbBhGtGFhxuWYesPrbMokOl6AmOHG4n0Q4N9ovfAqBFKTRQ1m/xiL0aY
hR7gSe0sbOnGZFqo8yiojQnnXfDYVJd3koUs34Ww2TJDw0w6jW+P4aBledGoYQHY
mMwiVgQTq1+h1roPQgzMh1RezP4UwZvZiaqOAURBjJD28FpAQFbovFUnSXhECUrv
IbBo8FeK6qcTk9Ow+eO6daknRkgLqPRAPgnjATikzA7cCC6ohrSK09YECpD8TsqJ
EuxvOOxhWJXYUdeju/X1wL5NRg8mb8YFtteA39mZ75NRvQnwC+sMGJmayLpOw06F
PKb8KbcOOqXF5sgue1ap1tUsV9Wjg7HeR8cQtzKYwtuG+D5HIexSYtq7gCzw8ysE
zLvbE4ZB5l3EjQ==
-----END CERTIFICATE-----
