Certificate:
    Data:
        Version: 3 (0x2)
        Serial Number: 4103 (0x1007)
        Signature Algorithm: sha256WithRSAEncryption
        Issuer: C=IN, ST=Bihar, O=DemoServices, OU=Intermediate, CN=DemoIntermediateCA
        Validity
            Not Before: Feb 26 05:46:32 2026 GMT
            Not After : Feb 26 05:46:32 2027 GMT
        Subject: C=IN, ST=Jharkhand, O=None, OU=None, CN=loha/emailAddress=loha@gmail.com
        Subject Public Key Info:
            Public Key Algorithm: rsaEncryption
                Public-Key: (2048 bit)
                Modulus:
                    00:96:17:05:19:60:7b:da:40:7d:4f:e4:58:48:e2:
                    17:e5:15:1d:b7:b6:23:b2:9e:06:5c:e8:9b:d2:1b:
                    5c:3a:e2:96:21:ea:99:d7:9b:88:dd:74:a2:cf:4e:
                    be:9f:31:eb:87:2c:87:27:a3:72:91:06:d0:7d:12:
                    28:6d:e6:97:f6:0d:da:fc:9f:d5:f7:1c:ee:f5:03:
                    31:de:3c:50:57:38:df:66:07:df:92:02:fd:3e:ac:
                    24:bb:ee:6b:b6:cd:69:08:e9:6b:7d:7c:22:ab:16:
                    2a:07:0e:02:66:63:bf:e7:96:fc:a0:69:0e:d2:9f:
                    89:a7:3b:d8:6d:9f:ec:00:fd:ba:46:57:b4:68:65:
                    df:1c:9f:9f:52:22:b6:27:03:04:61:0c:ac:a2:31:
                    60:e1:be:31:b4:c6:49:0e:ff:51:26:f2:30:d9:3d:
                    71:6d:6f:a0:19:f3:e0:5a:9a:75:67:6d:07:33:14:
                    07:15:d4:43:5c:76:48:2e:7d:8f:c4:04:eb:23:03:
                    07:54:b7:dd:9b:dd:ea:94:a9:98:4f:6f:a0:e1:85:
                    be:eb:da:5c:ed:dc:4a:cf:a8:fb:3a:b4:18:12:e0:
                    80:b4:f6:a5:46:64:ac:bc:51:35:eb:29:25:21:ff:
                    ce:fc:d3:3a:bf:74:e3:a8:9e:2f:0b:fa:6d:5a:07:
                    b2:61
                Exponent: 65537 (0x10001)
        X509v3 extensions:
            X509v3 Basic Constraints: 
                CA:FALSE
            X509v3 Subject Key Identifier: 
                4E:A0:4C:F3:B4:46:1F:B5:4A:50:F0:8F:BD:1B:65:61:AA:A4:81:C1
            X509v3 Authority Key Identifier: 
                3C:E7:36:3F:17:26:50:E7:59:68:87:AC:0F:0E:5F:76:C6:9E:44:26
            X509v3 Key Usage: 
                Digital Signature, Key Encipherment
            X509v3 Extended Key Usage: 
                TLS Web Client Authentication
            X509v3 CRL Distribution Points: 
                Full Name:
                  URI:http://localhost:3000/static/intermediate.crl

            1.2.3.4.5.6.7.8.1: 
                ...{"Zero Trust Gateway":"Policy Admin","PKI Management":"Cert Operator","HSM Operation":"NA","IAM":"NA","Security Analytics":"NA","Crypto Vault":"NA"}
    Signature Algorithm: sha256WithRSAEncryption
    Signature Value:
        38:55:0f:24:0a:c5:b5:70:95:f5:36:0b:8b:90:24:d1:d0:1e:
        e7:b7:19:86:41:b4:bf:5e:bb:c4:f0:fd:17:e3:d3:c6:9f:c4:
        82:9d:5c:44:b1:b4:f9:cf:a5:8a:c3:67:3e:09:43:2e:27:9a:
        9e:e3:f6:d8:a7:ff:8f:cf:97:aa:fb:37:a7:7d:bf:43:ad:b1:
        ee:57:5c:7e:84:09:c4:a7:e2:c2:1c:d5:bd:0f:b2:a4:45:c7:
        5b:81:1b:20:37:a3:22:a6:d9:e0:e5:cf:cb:c4:37:e7:1d:b6:
        64:9e:7b:48:93:45:2f:63:94:84:7b:c6:11:5f:57:b5:1a:c2:
        1a:f1:cf:0c:78:14:9e:62:2b:34:4b:df:42:c4:5f:17:d8:1d:
        91:c1:21:ce:4b:c2:76:6b:07:6a:5a:ad:4d:27:af:be:1b:15:
        cc:bb:8b:2e:45:42:c0:60:83:6c:8c:39:4b:94:b5:9a:dc:89:
        ec:0c:9f:ff:57:18:d8:3c:c8:34:bb:39:43:25:9f:85:ca:19:
        b4:f6:46:26:76:d9:68:fa:e3:4f:01:f9:a7:7f:13:3a:bc:df:
        b2:d4:1c:8d:53:93:a1:fa:7f:8d:55:ca:65:1f:30:15:2b:70:
        0a:02:db:82:db:ec:f1:45:a1:28:10:21:74:ab:53:42:c9:19:
        48:00:62:9d:4d:d7:1a:8a:7d:65:95:d3:13:2e:de:c1:78:07:
        8f:59:bf:c3:6b:ec:38:e7:13:73:dc:a5:73:84:1a:75:2f:66:
        5f:ae:d5:3e:fc:b7:b1:ac:27:de:0e:4e:5a:2e:0e:9a:a9:e8:
        81:8a:cf:e1:2a:6a:a7:8d:8d:2e:5b:79:67:ef:e3:6c:62:6e:
        e2:89:1e:08:6a:7f:a2:a1:20:87:14:6c:4b:35:36:5e:2f:55:
        cf:49:92:92:93:28:c5:a8:da:49:a5:83:4a:fd:59:2a:ae:37:
        b8:7b:f9:7b:63:93:f7:5c:d8:8f:a0:19:83:ed:8b:03:68:73:
        35:c2:a8:0d:c0:ee:12:58:4e:6a:9f:e7:7c:ab:b8:2f:65:47:
        83:05:8e:59:34:0e:38:af:f5:65:a9:12:08:f9:8f:4b:c2:ed:
        90:46:32:80:7d:e0:a1:77:bf:20:d2:7a:77:37:6c:de:ea:db:
        a7:c7:0b:3a:bc:76:ee:19:11:a5:bb:7e:c4:83:f6:55:eb:c5:
        7d:df:6e:8c:bb:0f:99:39:4a:64:de:0a:bc:7c:74:1c:0d:88:
        ee:bd:f0:bf:29:44:a4:88:f3:10:50:cd:7d:8c:dc:e5:9d:b8:
        3c:c9:26:9c:58:c6:60:0e:92:46:be:b3:9c:57:d1:a1:bb:4f:
        a7:54:b5:65:bd:65:67:51
-----BEGIN CERTIFICATE-----
MIIFqzCCA5OgAwIBAgICEAcwDQYJKoZIhvcNAQELBQAwaDELMAkGA1UEBhMCSU4x
DjAMBgNVBAgMBUJpaGFyMRUwEwYDVQQKDAxEZW1vU2VydmljZXMxFTATBgNVBAsM
DEludGVybWVkaWF0ZTEbMBkGA1UEAwwSRGVtb0ludGVybWVkaWF0ZUNBMB4XDTI2
MDIyNjA1NDYzMloXDTI3MDIyNjA1NDYzMlowbTELMAkGA1UEBhMCSU4xEjAQBgNV
BAgMCUpoYXJraGFuZDENMAsGA1UECgwETm9uZTENMAsGA1UECwwETm9uZTENMAsG
A1UEAwwEbG9oYTEdMBsGCSqGSIb3DQEJARYObG9oYUBnbWFpbC5jb20wggEiMA0G
CSqGSIb3DQEBAQUAA4IBDwAwggEKAoIBAQCWFwUZYHvaQH1P5FhI4hflFR23tiOy
ngZc6JvSG1w64pYh6pnXm4jddKLPTr6fMeuHLIcno3KRBtB9Eiht5pf2Ddr8n9X3
HO71AzHePFBXON9mB9+SAv0+rCS77mu2zWkI6Wt9fCKrFioHDgJmY7/nlvygaQ7S
n4mnO9htn+wA/bpGV7RoZd8cn59SIrYnAwRhDKyiMWDhvjG0xkkO/1Em8jDZPXFt
b6AZ8+BamnVnbQczFAcV1ENcdkgufY/EBOsjAwdUt92b3eqUqZhPb6Dhhb7r2lzt
3ErPqPs6tBgS4IC09qVGZKy8UTXrKSUh/8780zq/dOOoni8L+m1aB7JhAgMBAAGj
ggFYMIIBVDAJBgNVHRMEAjAAMB0GA1UdDgQWBBROoEzztEYftUpQ8I+9G2VhqqSB
wTAfBgNVHSMEGDAWgBQ85zY/FyZQ51loh6wPDl92xp5EJjALBgNVHQ8EBAMCBaAw
EwYDVR0lBAwwCgYIKwYBBQUHAwIwPgYDVR0fBDcwNTAzoDGgL4YtaHR0cDovL2xv
Y2FsaG9zdDozMDAwL3N0YXRpYy9pbnRlcm1lZGlhdGUuY3JsMIGkBggqAwQFBgcI
AQSBlwyBlHsiWmVybyBUcnVzdCBHYXRld2F5IjoiUG9saWN5IEFkbWluIiwiUEtJ
IE1hbmFnZW1lbnQiOiJDZXJ0IE9wZXJhdG9yIiwiSFNNIE9wZXJhdGlvbiI6Ik5B
IiwiSUFNIjoiTkEiLCJTZWN1cml0eSBBbmFseXRpY3MiOiJOQSIsIkNyeXB0byBW
YXVsdCI6Ik5BIn0wDQYJKoZIhvcNAQELBQADggIBADhVDyQKxbVwlfU2C4uQJNHQ
Hue3GYZBtL9eu8Tw/Rfj08afxIKdXESxtPnPpYrDZz4JQy4nmp7j9tin/4/Pl6r7
N6d9v0Otse5XXH6ECcSn4sIc1b0PsqRFx1uBGyA3oyKm2eDlz8vEN+cdtmSee0iT
RS9jlIR7xhFfV7Uawhrxzwx4FJ5iKzRL30LEXxfYHZHBIc5LwnZrB2parU0nr74b
Fcy7iy5FQsBgg2yMOUuUtZrciewMn/9XGNg8yDS7OUMln4XKGbT2RiZ22Wj6408B
+ad/Ezq837LUHI1Tk6H6f41VymUfMBUrcAoC24Lb7PFFoSgQIXSrU0LJGUgAYp1N
1xqKfWWV0xMu3sF4B49Zv8Nr7DjnE3PcpXOEGnUvZl+u1T78t7GsJ94OTlouDpqp
6IGKz+EqaqeNjS5beWfv42xibuKJHghqf6KhIIcUbEs1Nl4vVc9JkpKTKMWo2kml
g0r9WSquN7h7+Xtjk/dc2I+gGYPtiwNoczXCqA3A7hJYTmqf53yruC9lR4MFjlk0
Djiv9WWpEgj5j0vC7ZBGMoB94KF3vyDSenc3bN7q26fHCzq8du4ZEaW7fsSD9lXr
xX3fboy7D5k5SmTeCrx8dBwNiO698L8pRKSI8xBQzX2M3OWduDzJJpxYxmAOkka+
s5xX0aG7T6dUtWW9ZWdR
-----END CERTIFICATE-----
