Certificate:
    Data:
        Version: 3 (0x2)
        Serial Number: 4103 (0x1007)
        Signature Algorithm: sha256WithRSAEncryption
        Issuer: C=IN, ST=Bihar, O=DemoServices, OU=Intermediate, CN=DemoIntermediateCA
        Validity
            Not Before: Mar  5 06:06:14 2026 GMT
            Not After : Mar  5 06:06:14 2027 GMT
        Subject: C=IN, ST=karnataka, O=cdac, OU=rise, CN=thirteen/emailAddress=twlever@gmail.com
        Subject Public Key Info:
            Public Key Algorithm: rsaEncryption
                Public-Key: (2048 bit)
                Modulus:
                    00:9a:89:2d:32:fd:09:3b:a8:a6:4a:83:ab:6a:12:
                    c0:fd:cf:d5:e5:a7:73:7c:4b:3a:e2:ac:65:fa:bb:
                    37:53:95:d2:50:ad:cf:f8:ed:91:3e:b7:2d:41:37:
                    ee:88:51:11:be:11:46:1b:6a:7f:17:17:4d:ef:5a:
                    76:45:86:05:a0:11:4b:e5:3b:99:3c:a1:e1:f5:24:
                    32:a8:d8:3e:18:b0:07:93:74:a0:e9:4b:79:9d:8e:
                    9f:56:4b:8e:6f:44:f7:36:a1:34:73:f4:64:9f:ff:
                    f0:c8:61:cb:b9:5c:f0:0a:33:47:d2:fd:cd:24:74:
                    21:99:6a:aa:16:c3:9f:29:94:79:b6:c8:99:90:90:
                    0b:41:2a:77:79:9f:d9:03:ce:76:c6:bc:d7:8e:74:
                    28:e0:b3:80:52:b5:81:16:2c:b9:db:b9:50:3a:16:
                    c3:70:14:b3:72:56:5b:39:87:53:46:82:da:7b:d9:
                    2d:b1:8a:ed:b9:a5:59:07:88:e3:3a:86:93:63:78:
                    71:10:c6:24:74:03:1c:04:21:3f:82:a0:70:ed:bd:
                    05:66:39:6c:72:37:77:1d:c3:71:b6:8c:6e:ee:6d:
                    22:c1:06:38:06:65:db:7d:ac:ca:64:47:81:ef:a4:
                    ab:0e:25:c8:5a:9f:8a:62:13:be:9c:65:06:ba:d4:
                    79:65
                Exponent: 65537 (0x10001)
        X509v3 extensions:
            X509v3 Basic Constraints: 
                CA:FALSE
            X509v3 Subject Key Identifier: 
                D7:4E:EB:9E:DC:4A:31:DD:C0:63:CC:9D:AB:2A:39:01:B7:4B:D3:B5
            X509v3 Authority Key Identifier: 
                3C:E7:36:3F:17:26:50:E7:59:68:87:AC:0F:0E:5F:76:C6:9E:44:26
            X509v3 Key Usage: 
                Digital Signature, Key Encipherment
            X509v3 Extended Key Usage: 
                TLS Web Client Authentication
            X509v3 CRL Distribution Points: 
                Full Name:
                  URI:http://localhost:3000/static/intermediate.crl

            1.2.3.4.5.6.7.8.1: 
                ...{"Zero Trust Gateway":"NA","PKI Management":"Cert Operator","HSM Operation":"Crypto Operator","IAM":"NA","Security Analytics":"NA","Crypto Vault":"NA"}
    Signature Algorithm: sha256WithRSAEncryption
    Signature Value:
        33:cb:06:24:06:56:76:e3:2f:6b:89:da:e5:3f:bc:0b:9d:6a:
        0b:40:5e:21:39:64:df:9f:90:b5:d2:d0:8d:87:d9:75:8b:83:
        73:1b:34:09:1a:5d:60:48:54:7e:37:10:db:df:31:65:ab:4e:
        bf:97:09:38:fc:d3:f4:a3:1c:36:09:c5:86:43:e4:c3:12:49:
        22:bf:8e:fa:fd:d9:7d:e7:34:9b:72:0b:50:a9:03:57:e9:b3:
        4a:b4:4a:90:79:2e:ae:14:63:8a:c2:ba:4f:b8:13:1f:95:4a:
        87:f9:52:88:ae:90:20:93:02:a7:a6:ca:7c:2d:ee:dc:0f:ab:
        66:82:e0:7e:09:80:d7:65:de:30:45:b4:b7:35:6a:d8:25:d1:
        b8:51:cc:20:a8:4e:4b:e4:ae:3f:d8:30:fe:d0:b5:b2:71:86:
        03:3a:92:27:69:3b:ff:0d:82:6c:a1:eb:e3:95:9d:b8:02:7b:
        d4:25:60:62:c1:63:55:b5:70:15:12:f3:11:a5:f7:96:8a:19:
        c4:e8:a6:ce:0e:4e:cc:c8:d9:66:d3:a7:98:4b:e6:8b:a6:6c:
        aa:85:1e:a4:f5:ae:fb:11:9c:7e:c0:80:f1:19:67:85:11:6f:
        b6:50:d5:1b:2c:a8:b7:7b:2e:b1:aa:ba:55:97:d0:69:f0:59:
        60:90:f3:be:4e:24:bb:c6:37:85:91:b1:3a:53:cb:91:3b:d6:
        10:32:79:f9:e0:db:bc:e3:c0:73:05:5f:96:a1:83:b2:7a:f2:
        42:12:91:25:5e:a7:36:15:8b:f5:46:7b:5e:08:2c:f1:38:76:
        80:43:79:cd:fc:16:f2:b4:0f:8b:7c:89:04:3c:e1:38:83:90:
        f7:91:57:93:9a:5a:a9:22:18:2b:3e:fa:68:09:16:d6:98:34:
        95:90:af:f9:bf:05:09:5d:fb:6b:47:1b:aa:cc:bf:36:b0:6c:
        cb:b1:fe:03:04:7d:8e:ee:11:f3:34:d7:d3:ec:9c:90:85:df:
        35:ce:67:5a:da:c1:42:ba:80:5d:24:52:be:c1:80:b0:e4:d1:
        ee:db:54:07:95:81:b5:d3:ae:86:ef:f7:41:63:7d:36:d8:a5:
        79:ff:69:aa:05:cb:78:35:bd:5f:4f:9b:20:c1:03:0a:29:b8:
        81:65:a5:1a:71:1b:59:bb:b0:fa:64:68:b3:f2:e5:09:e8:a8:
        17:6e:9f:1b:ac:aa:bf:aa:63:c8:41:95:a9:9f:1b:bd:de:d5:
        f2:e2:fe:e6:87:38:cb:47:00:88:04:7f:db:56:c8:1d:95:54:
        02:34:53:ce:6e:32:70:7e:40:60:11:ab:c3:89:08:c2:92:0d:
        7d:ec:b5:f0:ea:eb:4b:28
-----BEGIN CERTIFICATE-----
MIIFtTCCA52gAwIBAgICEAcwDQYJKoZIhvcNAQELBQAwaDELMAkGA1UEBhMCSU4x
DjAMBgNVBAgMBUJpaGFyMRUwEwYDVQQKDAxEZW1vU2VydmljZXMxFTATBgNVBAsM
DEludGVybWVkaWF0ZTEbMBkGA1UEAwwSRGVtb0ludGVybWVkaWF0ZUNBMB4XDTI2
MDMwNTA2MDYxNFoXDTI3MDMwNTA2MDYxNFowdDELMAkGA1UEBhMCSU4xEjAQBgNV
BAgMCWthcm5hdGFrYTENMAsGA1UECgwEY2RhYzENMAsGA1UECwwEcmlzZTERMA8G
A1UEAwwIdGhpcnRlZW4xIDAeBgkqhkiG9w0BCQEWEXR3bGV2ZXJAZ21haWwuY29t
MIIBIjANBgkqhkiG9w0BAQEFAAOCAQ8AMIIBCgKCAQEAmoktMv0JO6imSoOrahLA
/c/V5adzfEs64qxl+rs3U5XSUK3P+O2RPrctQTfuiFERvhFGG2p/FxdN71p2RYYF
oBFL5TuZPKHh9SQyqNg+GLAHk3Sg6Ut5nY6fVkuOb0T3NqE0c/Rkn//wyGHLuVzw
CjNH0v3NJHQhmWqqFsOfKZR5tsiZkJALQSp3eZ/ZA852xrzXjnQo4LOAUrWBFiy5
27lQOhbDcBSzclZbOYdTRoLae9ktsYrtuaVZB4jjOoaTY3hxEMYkdAMcBCE/gqBw
7b0FZjlscjd3HcNxtoxu7m0iwQY4BmXbfazKZEeB76SrDiXIWp+KYhO+nGUGutR5
ZQIDAQABo4IBWzCCAVcwCQYDVR0TBAIwADAdBgNVHQ4EFgQU107rntxKMd3AY8yd
qyo5AbdL07UwHwYDVR0jBBgwFoAUPOc2PxcmUOdZaIesDw5fdsaeRCYwCwYDVR0P
BAQDAgWgMBMGA1UdJQQMMAoGCCsGAQUFBwMCMD4GA1UdHwQ3MDUwM6AxoC+GLWh0
dHA6Ly9sb2NhbGhvc3Q6MzAwMC9zdGF0aWMvaW50ZXJtZWRpYXRlLmNybDCBpwYI
KgMEBQYHCAEEgZoMgZd7Ilplcm8gVHJ1c3QgR2F0ZXdheSI6Ik5BIiwiUEtJIE1h
bmFnZW1lbnQiOiJDZXJ0IE9wZXJhdG9yIiwiSFNNIE9wZXJhdGlvbiI6IkNyeXB0
byBPcGVyYXRvciIsIklBTSI6Ik5BIiwiU2VjdXJpdHkgQW5hbHl0aWNzIjoiTkEi
LCJDcnlwdG8gVmF1bHQiOiJOQSJ9MA0GCSqGSIb3DQEBCwUAA4ICAQAzywYkBlZ2
4y9ridrlP7wLnWoLQF4hOWTfn5C10tCNh9l1i4NzGzQJGl1gSFR+NxDb3zFlq06/
lwk4/NP0oxw2CcWGQ+TDEkkiv476/dl95zSbcgtQqQNX6bNKtEqQeS6uFGOKwrpP
uBMflUqH+VKIrpAgkwKnpsp8Le7cD6tmguB+CYDXZd4wRbS3NWrYJdG4UcwgqE5L
5K4/2DD+0LWycYYDOpInaTv/DYJsoevjlZ24AnvUJWBiwWNVtXAVEvMRpfeWihnE
6KbODk7MyNlm06eYS+aLpmyqhR6k9a77EZx+wIDxGWeFEW+2UNUbLKi3ey6xqrpV
l9Bp8FlgkPO+TiS7xjeFkbE6U8uRO9YQMnn54Nu848BzBV+WoYOyevJCEpElXqc2
FYv1RnteCCzxOHaAQ3nN/BbytA+LfIkEPOE4g5D3kVeTmlqpIhgrPvpoCRbWmDSV
kK/5vwUJXftrRxuqzL82sGzLsf4DBH2O7hHzNNfT7JyQhd81zmda2sFCuoBdJFK+
wYCw5NHu21QHlYG1066G7/dBY3022KV5/2mqBct4Nb1fT5sgwQMKKbiBZaUacRtZ
u7D6ZGiz8uUJ6KgXbp8brKq/qmPIQZWpnxu93tXy4v7mhzjLRwCIBH/bVsgdlVQC
NFPObjJwfkBgEavDiQjCkg197LXw6utLKA==
-----END CERTIFICATE-----
