Certificate:
    Data:
        Version: 3 (0x2)
        Serial Number: 4104 (0x1008)
        Signature Algorithm: sha256WithRSAEncryption
        Issuer: C=IN, ST=Bihar, O=DemoServices, OU=Intermediate, CN=DemoIntermediateCA
        Validity
            Not Before: Feb 26 05:49:21 2026 GMT
            Not After : Feb 26 05:49:21 2027 GMT
        Subject: C=IN, ST=Bihar, O=None, OU=None, CN=thanda/emailAddress=2003.v.vishal@gmail.com
        Subject Public Key Info:
            Public Key Algorithm: rsaEncryption
                Public-Key: (2048 bit)
                Modulus:
                    00:9a:95:5c:c7:9d:b1:51:25:2b:c8:f8:98:c0:e5:
                    88:34:0c:ff:ae:cd:af:bb:34:33:c4:3a:9d:b6:d5:
                    94:d6:ed:63:52:31:eb:68:7f:52:5b:1c:7a:58:e6:
                    f7:b8:97:02:73:fe:1e:75:83:d6:47:ef:96:ec:13:
                    8b:ff:4d:67:ab:b0:9f:11:de:25:89:38:27:f3:4e:
                    d5:3c:2e:15:73:b1:66:9d:50:77:3b:6f:62:33:82:
                    b4:da:a7:97:0a:37:6a:d5:83:31:4e:90:59:41:6b:
                    2b:0c:2c:c1:cf:a4:a0:ea:d8:18:47:85:5d:67:ab:
                    fe:55:1a:84:7b:84:52:88:3b:1f:55:35:60:db:97:
                    2c:86:d1:e4:41:34:69:12:5d:99:67:d6:f0:6f:03:
                    82:4b:d1:b4:d1:1e:af:19:6d:71:bb:cd:c5:bb:6f:
                    da:cb:5c:2d:d9:72:8e:b1:c2:a7:b1:e3:2f:c1:bc:
                    a7:22:4d:c0:23:5f:ab:78:95:90:70:b3:90:3f:04:
                    eb:17:41:5c:71:2c:71:be:c3:b7:71:20:44:04:ca:
                    26:45:f8:53:87:d6:d6:9a:40:b2:8e:9c:fc:df:9e:
                    23:5b:7e:2e:59:bd:a1:1d:ec:b0:b9:5c:20:2b:bc:
                    d8:22:a0:28:23:68:ef:d4:0c:81:9b:a0:e6:42:6d:
                    ea:69
                Exponent: 65537 (0x10001)
        X509v3 extensions:
            X509v3 Basic Constraints: 
                CA:FALSE
            X509v3 Subject Key Identifier: 
                37:5B:6E:55:90:E3:1E:CC:7C:1C:B5:5F:91:97:DE:BC:97:A0:07:A5
            X509v3 Authority Key Identifier: 
                3C:E7:36:3F:17:26:50:E7:59:68:87:AC:0F:0E:5F:76:C6:9E:44:26
            X509v3 Key Usage: 
                Digital Signature, Key Encipherment
            X509v3 Extended Key Usage: 
                TLS Web Client Authentication
            X509v3 CRL Distribution Points: 
                Full Name:
                  URI:http://localhost:3000/static/intermediate.crl

            1.2.3.4.5.6.7.8.1: 
                ..{"Zero Trust Gateway":"NA","PKI Management":"NA","HSM Operation":"NA","IAM":"NA","Security Analytics":"NA","Crypto Vault":"NA"}
    Signature Algorithm: sha256WithRSAEncryption
    Signature Value:
        3c:64:3d:b6:02:ba:a2:e7:6d:5f:b4:5a:36:63:26:59:ae:b3:
        a0:37:37:69:37:31:71:b6:a9:75:87:18:49:c0:01:55:1e:d4:
        74:06:ed:15:aa:ba:9c:d6:52:1b:52:23:12:58:d5:1e:b0:18:
        2d:1e:55:ea:6b:6d:c5:9c:bf:05:2d:44:2b:28:60:74:74:f8:
        a7:d2:b7:38:ba:16:99:55:f0:e7:26:2e:36:12:c4:48:90:23:
        90:a1:f3:1a:69:c5:6c:73:20:a9:81:cd:9a:bf:56:1f:2e:28:
        df:6c:c4:22:97:d8:eb:41:84:75:5f:d0:74:f5:4c:93:02:06:
        9c:fd:88:f2:1e:c7:70:a7:e4:2f:e7:96:1c:90:96:77:f7:d6:
        c4:99:71:1b:f8:9c:a4:88:67:8e:d2:2b:07:4d:cb:b4:91:f3:
        71:38:40:c0:8a:1f:b3:07:4b:62:90:72:22:13:ef:43:a3:91:
        ad:8e:5b:a0:c9:5e:56:55:21:8b:90:07:04:f0:a0:11:bd:14:
        00:fe:af:d7:21:62:67:42:10:96:2d:f3:1a:89:f4:b6:d1:56:
        49:26:8f:38:e9:7b:ed:0e:d3:89:09:94:7d:29:a5:ed:15:0e:
        d4:79:19:a4:36:ff:9e:6c:e0:a3:47:ec:7f:86:87:96:fe:50:
        b1:1d:3e:9e:bc:28:f0:96:79:4f:a1:6e:15:db:51:dd:1f:d3:
        09:60:a6:27:ce:f1:3b:e8:73:6a:54:c0:95:fe:e2:68:5a:07:
        1b:a2:81:56:42:95:93:96:9a:54:44:02:f1:45:ba:a6:56:c4:
        bd:9b:ce:e2:55:d7:7d:f3:47:65:39:c9:10:41:30:4c:82:b7:
        dd:b9:1f:be:3c:ac:12:0d:81:e6:c4:9a:4a:3c:bb:26:30:aa:
        4d:a3:03:f9:c5:09:c0:b1:7a:6a:c8:db:17:43:c6:40:56:a4:
        2d:b9:21:e2:b9:04:98:6f:54:9e:6c:cf:1f:a4:61:ef:30:66:
        e9:09:32:c5:48:08:fb:b8:9d:62:92:a3:ec:d5:4a:e4:e7:5a:
        b4:0e:3a:6e:d9:28:98:aa:37:59:4b:8a:d2:a1:44:ac:7e:71:
        3d:11:b6:64:a8:21:d0:ba:b0:5c:00:5a:dd:fa:6f:a9:77:df:
        e2:28:7a:bc:1e:9c:83:43:4f:36:f9:ed:cc:aa:0e:8a:65:28:
        a9:e1:e9:45:0f:76:18:c9:d7:f9:2f:4c:ad:9f:64:e2:01:c9:
        01:5c:10:e1:a7:1b:9a:e0:a1:46:51:e8:da:2c:d5:6b:73:be:
        69:bc:99:5c:3f:57:07:eb:8e:cd:c6:85:2c:82:4f:75:a8:65:
        e8:83:d3:17:04:e6:ef:2f
-----BEGIN CERTIFICATE-----
MIIFnDCCA4SgAwIBAgICEAgwDQYJKoZIhvcNAQELBQAwaDELMAkGA1UEBhMCSU4x
DjAMBgNVBAgMBUJpaGFyMRUwEwYDVQQKDAxEZW1vU2VydmljZXMxFTATBgNVBAsM
DEludGVybWVkaWF0ZTEbMBkGA1UEAwwSRGVtb0ludGVybWVkaWF0ZUNBMB4XDTI2
MDIyNjA1NDkyMVoXDTI3MDIyNjA1NDkyMVowdDELMAkGA1UEBhMCSU4xDjAMBgNV
BAgMBUJpaGFyMQ0wCwYDVQQKDAROb25lMQ0wCwYDVQQLDAROb25lMQ8wDQYDVQQD
DAZ0aGFuZGExJjAkBgkqhkiG9w0BCQEWFzIwMDMudi52aXNoYWxAZ21haWwuY29t
MIIBIjANBgkqhkiG9w0BAQEFAAOCAQ8AMIIBCgKCAQEAmpVcx52xUSUryPiYwOWI
NAz/rs2vuzQzxDqdttWU1u1jUjHraH9SWxx6WOb3uJcCc/4edYPWR++W7BOL/01n
q7CfEd4liTgn807VPC4Vc7FmnVB3O29iM4K02qeXCjdq1YMxTpBZQWsrDCzBz6Sg
6tgYR4VdZ6v+VRqEe4RSiDsfVTVg25cshtHkQTRpEl2ZZ9bwbwOCS9G00R6vGW1x
u83Fu2/ay1wt2XKOscKnseMvwbynIk3AI1+reJWQcLOQPwTrF0FccSxxvsO3cSBE
BMomRfhTh9bWmkCyjpz8354jW34uWb2hHeywuVwgK7zYIqAoI2jv1AyBm6DmQm3q
aQIDAQABo4IBQjCCAT4wCQYDVR0TBAIwADAdBgNVHQ4EFgQUN1tuVZDjHsx8HLVf
kZfevJegB6UwHwYDVR0jBBgwFoAUPOc2PxcmUOdZaIesDw5fdsaeRCYwCwYDVR0P
BAQDAgWgMBMGA1UdJQQMMAoGCCsGAQUFBwMCMD4GA1UdHwQ3MDUwM6AxoC+GLWh0
dHA6Ly9sb2NhbGhvc3Q6MzAwMC9zdGF0aWMvaW50ZXJtZWRpYXRlLmNybDCBjgYI
KgMEBQYHCAEEgYEMf3siWmVybyBUcnVzdCBHYXRld2F5IjoiTkEiLCJQS0kgTWFu
YWdlbWVudCI6Ik5BIiwiSFNNIE9wZXJhdGlvbiI6Ik5BIiwiSUFNIjoiTkEiLCJT
ZWN1cml0eSBBbmFseXRpY3MiOiJOQSIsIkNyeXB0byBWYXVsdCI6Ik5BIn0wDQYJ
KoZIhvcNAQELBQADggIBADxkPbYCuqLnbV+0WjZjJlmus6A3N2k3MXG2qXWHGEnA
AVUe1HQG7RWqupzWUhtSIxJY1R6wGC0eVeprbcWcvwUtRCsoYHR0+KfStzi6FplV
8OcmLjYSxEiQI5Ch8xppxWxzIKmBzZq/Vh8uKN9sxCKX2OtBhHVf0HT1TJMCBpz9
iPIex3Cn5C/nlhyQlnf31sSZcRv4nKSIZ47SKwdNy7SR83E4QMCKH7MHS2KQciIT
70Ojka2OW6DJXlZVIYuQBwTwoBG9FAD+r9chYmdCEJYt8xqJ9LbRVkkmjzjpe+0O
04kJlH0ppe0VDtR5GaQ2/55s4KNH7H+Gh5b+ULEdPp68KPCWeU+hbhXbUd0f0wlg
pifO8Tvoc2pUwJX+4mhaBxuigVZClZOWmlREAvFFuqZWxL2bzuJV133zR2U5yRBB
MEyCt925H748rBINgebEmko8uyYwqk2jA/nFCcCxemrI2xdDxkBWpC25IeK5BJhv
VJ5szx+kYe8wZukJMsVICPu4nWKSo+zVSuTnWrQOOm7ZKJiqN1lLitKhRKx+cT0R
tmSoIdC6sFwAWt36b6l33+IoerwenINDTzb57cyqDoplKKnh6UUPdhjJ1/kvTK2f
ZOIByQFcEOGnG5rgoUZR6Nos1Wtzvmm8mVw/Vwfrjs3GhSyCT3WoZeiD0xcE5u8v
-----END CERTIFICATE-----
