Certificate:
    Data:
        Version: 3 (0x2)
        Serial Number: 4105 (0x1009)
        Signature Algorithm: sha256WithRSAEncryption
        Issuer: C=IN, ST=Bihar, O=DemoServices, OU=Intermediate, CN=DemoIntermediateCA
        Validity
            Not Before: Feb 26 05:53:26 2026 GMT
            Not After : Feb 26 05:53:26 2027 GMT
        Subject: C=IN, ST=Bihar, O=None, OU=None, CN=pakka/emailAddress=2003.v.vishal@gmail.com
        Subject Public Key Info:
            Public Key Algorithm: rsaEncryption
                Public-Key: (2048 bit)
                Modulus:
                    00:8f:5c:db:bc:a2:69:b7:7f:a8:c4:51:d3:4b:74:
                    07:ee:4b:87:65:d2:92:82:6d:d2:40:e9:6a:dd:c4:
                    0d:3b:b5:a6:4b:fb:17:ba:54:c0:f9:cc:79:54:f9:
                    09:ae:c7:fb:ca:9e:b9:8e:5a:4f:e4:01:30:ae:5f:
                    8c:e0:dd:52:93:22:1d:4c:68:c1:86:5f:34:99:a8:
                    4a:d7:f1:15:07:6f:21:98:e0:f6:2c:c3:31:48:1f:
                    26:f3:47:3a:dd:94:c8:49:4f:bb:ac:1d:fc:55:98:
                    29:8d:0a:5d:ac:c7:eb:5e:e0:f3:e6:87:b2:66:8d:
                    9b:01:a4:c5:6a:b7:41:52:3c:c2:f9:c2:1f:75:b4:
                    c6:50:ed:0a:f9:e5:28:af:08:07:17:b4:e2:d2:69:
                    be:57:02:e5:d6:fd:c3:29:47:7d:70:9c:5a:6c:06:
                    39:e6:80:d7:91:c6:83:79:9b:92:d7:3d:37:7c:1f:
                    c2:8a:3b:68:9d:15:a4:d2:d7:46:fd:65:b5:ef:a4:
                    8b:74:8f:d3:8f:df:3a:ce:2c:3c:c8:ab:a2:76:2a:
                    af:13:bb:d7:75:11:22:ea:1a:17:71:97:36:f0:86:
                    79:37:30:a3:25:4e:92:b9:ac:ee:84:7e:d7:23:e7:
                    6a:5b:3a:60:ef:50:17:ba:c9:d0:e6:44:68:be:c9:
                    dc:7d
                Exponent: 65537 (0x10001)
        X509v3 extensions:
            X509v3 Basic Constraints: 
                CA:FALSE
            X509v3 Subject Key Identifier: 
                44:5C:3A:C5:53:CD:7B:8F:90:35:68:BF:5D:B9:F5:C0:A9:5A:14:F0
            X509v3 Authority Key Identifier: 
                3C:E7:36:3F:17:26:50:E7:59:68:87:AC:0F:0E:5F:76:C6:9E:44:26
            X509v3 Key Usage: 
                Digital Signature, Key Encipherment
            X509v3 Extended Key Usage: 
                TLS Web Client Authentication
            X509v3 CRL Distribution Points: 
                Full Name:
                  URI:http://localhost:3000/static/intermediate.crl

            1.2.3.4.5.6.7.8.1: 
                ...{"Zero Trust Gateway":"Policy Admin","PKI Management":"Cert Operator","HSM Operation":"NA","IAM":"NA","Security Analytics":"NA","Crypto Vault":"NA"}
    Signature Algorithm: sha256WithRSAEncryption
    Signature Value:
        24:a4:2e:10:a9:3e:62:41:67:24:f8:75:84:79:60:26:7f:19:
        ab:53:03:0e:6a:da:81:01:a7:d2:c6:26:ab:04:10:e0:f0:c7:
        b8:dc:ee:00:a5:e4:94:36:0e:38:32:53:9f:88:cc:64:f3:89:
        a8:79:85:cb:8e:6a:5b:87:00:c4:33:f5:fa:f2:99:12:a9:3d:
        fa:14:0f:1a:17:e9:34:00:61:23:cc:75:7a:d2:42:ea:f7:6f:
        62:dc:16:cf:7d:a5:04:ed:d2:31:84:1e:ca:24:e1:6e:45:04:
        4e:77:e1:1a:23:55:af:d1:1f:0b:89:89:6b:a6:d6:42:4c:c3:
        28:09:93:7c:c4:be:49:69:a7:93:11:6c:ab:9f:9e:04:dd:00:
        9f:58:41:0a:d5:0c:75:da:e9:c9:f7:58:0e:31:8d:6a:ab:9e:
        96:19:e0:7b:f5:86:9e:54:bd:2a:d9:57:df:05:76:28:fa:22:
        97:9b:ce:e5:a2:21:72:45:98:f4:51:6b:19:99:3c:e4:81:01:
        67:e9:81:c9:b6:a9:0c:ba:ad:9d:11:69:e6:b0:8c:d7:c9:e7:
        44:d9:31:f8:b4:e3:e5:8b:98:a1:0e:23:fc:98:c8:b6:1b:03:
        0c:ab:8f:ff:2a:dc:c9:52:0b:9c:13:10:4f:1a:1c:51:0f:04:
        16:47:33:f6:b1:a3:e6:8d:77:3e:8c:a4:eb:34:85:72:8f:b9:
        6b:05:f5:ac:03:f3:c6:50:7b:6e:3f:5f:f8:1e:bc:d0:84:37:
        ff:80:4f:5f:ac:24:6a:9d:66:0f:95:fd:bd:2a:2a:b4:d1:81:
        b0:4f:0b:59:ea:b6:84:48:05:05:42:d0:39:d2:8a:af:f1:21:
        31:fb:7f:5c:41:a5:c2:d8:7c:f2:3a:86:59:9f:1c:2e:ec:9a:
        43:77:fb:2c:15:ab:cf:06:d9:db:d7:00:71:65:5a:1f:e9:d4:
        30:24:b4:e1:c6:00:48:0f:9c:dd:81:cd:27:0a:8e:3b:ed:f0:
        81:fa:17:80:a7:89:7e:e4:e1:bc:9b:60:4e:36:0d:11:68:72:
        99:64:df:f9:e4:50:d3:40:ad:68:e1:28:60:2b:83:72:d1:e0:
        98:e0:eb:44:92:83:da:95:31:f8:46:16:ba:5d:fe:5a:ca:a9:
        54:cc:63:0a:99:9b:04:6e:60:a2:6a:b7:72:f1:f7:17:89:b6:
        67:cb:02:c2:25:07:fe:2d:78:75:4f:00:18:49:7a:d2:bd:48:
        5a:ae:56:60:f0:d6:f5:c5:e0:01:86:c9:24:38:44:87:02:8e:
        e5:03:fd:f4:3e:01:d8:a2:f1:2e:c6:9e:61:62:e0:cc:fd:ca:
        45:cf:64:0f:9d:4b:de:de
-----BEGIN CERTIFICATE-----
MIIFsTCCA5mgAwIBAgICEAkwDQYJKoZIhvcNAQELBQAwaDELMAkGA1UEBhMCSU4x
DjAMBgNVBAgMBUJpaGFyMRUwEwYDVQQKDAxEZW1vU2VydmljZXMxFTATBgNVBAsM
DEludGVybWVkaWF0ZTEbMBkGA1UEAwwSRGVtb0ludGVybWVkaWF0ZUNBMB4XDTI2
MDIyNjA1NTMyNloXDTI3MDIyNjA1NTMyNlowczELMAkGA1UEBhMCSU4xDjAMBgNV
BAgMBUJpaGFyMQ0wCwYDVQQKDAROb25lMQ0wCwYDVQQLDAROb25lMQ4wDAYDVQQD
DAVwYWtrYTEmMCQGCSqGSIb3DQEJARYXMjAwMy52LnZpc2hhbEBnbWFpbC5jb20w
ggEiMA0GCSqGSIb3DQEBAQUAA4IBDwAwggEKAoIBAQCPXNu8omm3f6jEUdNLdAfu
S4dl0pKCbdJA6WrdxA07taZL+xe6VMD5zHlU+Qmux/vKnrmOWk/kATCuX4zg3VKT
Ih1MaMGGXzSZqErX8RUHbyGY4PYswzFIHybzRzrdlMhJT7usHfxVmCmNCl2sx+te
4PPmh7JmjZsBpMVqt0FSPML5wh91tMZQ7Qr55SivCAcXtOLSab5XAuXW/cMpR31w
nFpsBjnmgNeRxoN5m5LXPTd8H8KKO2idFaTS10b9ZbXvpIt0j9OP3zrOLDzIq6J2
Kq8Tu9d1ESLqGhdxlzbwhnk3MKMlTpK5rO6Eftcj52pbOmDvUBe6ydDmRGi+ydx9
AgMBAAGjggFYMIIBVDAJBgNVHRMEAjAAMB0GA1UdDgQWBBREXDrFU817j5A1aL9d
ufXAqVoU8DAfBgNVHSMEGDAWgBQ85zY/FyZQ51loh6wPDl92xp5EJjALBgNVHQ8E
BAMCBaAwEwYDVR0lBAwwCgYIKwYBBQUHAwIwPgYDVR0fBDcwNTAzoDGgL4YtaHR0
cDovL2xvY2FsaG9zdDozMDAwL3N0YXRpYy9pbnRlcm1lZGlhdGUuY3JsMIGkBggq
AwQFBgcIAQSBlwyBlHsiWmVybyBUcnVzdCBHYXRld2F5IjoiUG9saWN5IEFkbWlu
IiwiUEtJIE1hbmFnZW1lbnQiOiJDZXJ0IE9wZXJhdG9yIiwiSFNNIE9wZXJhdGlv
biI6Ik5BIiwiSUFNIjoiTkEiLCJTZWN1cml0eSBBbmFseXRpY3MiOiJOQSIsIkNy
eXB0byBWYXVsdCI6Ik5BIn0wDQYJKoZIhvcNAQELBQADggIBACSkLhCpPmJBZyT4
dYR5YCZ/GatTAw5q2oEBp9LGJqsEEODwx7jc7gCl5JQ2DjgyU5+IzGTziah5hcuO
aluHAMQz9frymRKpPfoUDxoX6TQAYSPMdXrSQur3b2LcFs99pQTt0jGEHsok4W5F
BE534RojVa/RHwuJiWum1kJMwygJk3zEvklpp5MRbKufngTdAJ9YQQrVDHXa6cn3
WA4xjWqrnpYZ4Hv1hp5UvSrZV98Fdij6IpebzuWiIXJFmPRRaxmZPOSBAWfpgcm2
qQy6rZ0RaeawjNfJ50TZMfi04+WLmKEOI/yYyLYbAwyrj/8q3MlSC5wTEE8aHFEP
BBZHM/axo+aNdz6MpOs0hXKPuWsF9awD88ZQe24/X/gevNCEN/+AT1+sJGqdZg+V
/b0qKrTRgbBPC1nqtoRIBQVC0DnSiq/xITH7f1xBpcLYfPI6hlmfHC7smkN3+ywV
q88G2dvXAHFlWh/p1DAktOHGAEgPnN2BzScKjjvt8IH6F4CniX7k4bybYE42DRFo
cplk3/nkUNNArWjhKGArg3LR4Jjg60SSg9qVMfhGFrpd/lrKqVTMYwqZmwRuYKJq
t3Lx9xeJtmfLAsIlB/4teHVPABhJetK9SFquVmDw1vXF4AGGySQ4RIcCjuUD/fQ+
Adii8S7GnmFi4Mz9ykXPZA+dS97e
-----END CERTIFICATE-----
